ARM Linker, 5.03 [Build 76] [MDK-ARM Standard]

==============================================================================

Section Cross References

    main.o(.text) refers to stm32f10x_rcc.o(.text) for RCC_APB2PeriphClockCmd
    main.o(.text) refers to stm32f10x_gpio.o(.text) for GPIO_PinRemapConfig
    main.o(.text) refers to device.o(.text) for Device_Init
    main.o(.text) refers to dlmstp.o(.text) for dlmstp_init
    main.o(.text) refers to rs485.o(.text) for Recievebuf_Initialize
    main.o(.text) refers to datalink.o(.text) for datalink_receive
    main.o(.text) refers to h_npdu.o(.text) for npdu_handler
    main.o(.text) refers to delay.o(.text) for delay_ms
    main.o(.text) refers to timer.o(.text) for timer_set
    main.o(.text) refers to tapdev.o(.text) for tapdev_read
    main.o(.text) refers to uip.o(.text) for htons
    main.o(.text) refers to uip_arp.o(.text) for uip_arp_out
    main.o(.text) refers to modbus.o(.text) for SoftReset
    main.o(.text) refers to led.o(.text) for LED_Init
    main.o(.text) refers to 24cxx.o(.text) for AT24CXX_WriteOneByte
    main.o(.text) refers to inputs.o(.text) for inputs_init
    main.o(.text) refers to modbus.o(.bss) for modbus
    main.o(.text) refers to main.o(.bss) for PDUBuffer
    main.o(.text) refers to main.o(.data) for timer_ok
    main.o(.text) refers to uip.o(.data) for uip_len
    main.o(.text) refers to uip.o(.bss) for uip_buf
    main.o(.text) refers to udp_scan.o(.data) for IP_Change
    main.o(.text) refers to modbus.o(.data) for dealwithTag
    main.o(.text) refers to inputs.o(.bss) for data_change
    main.o(.text) refers to usart.o(.text) for uart1_init
    main.o(.text) refers to misc.o(.text) for NVIC_SetVectorTable
    main.o(.text) refers to key.o(.text) for beeper_gpio_init
    main.o(.text) refers to spi.o(.text) for SPI1_Init
    main.o(.text) refers to vmalloc.o(.text) for mem_init
    main.o(.text) refers to __2printf.o(.text) for __2printf
    main.o(.text) refers to tasks.o(.text) for xTaskGenericCreate
    stm32f10x_it.o(.text) refers to __2printf.o(.text) for __2printf
    system_stm32f10x.o(.text) refers to system_stm32f10x.o(.data) for SystemCoreClock
    modbus_regop.o(.text) refers to 24cxx.o(.text) for AT24CXX_WriteOneByte
    modbus_regop.o(.text) refers to usart.o(.text) for uart1_init
    modbus_regop.o(.text) refers to modbus.o(.text) for modbus_init
    modbus_regop.o(.text) refers to modbus.o(.bss) for modbus
    modbus_regop.o(.text) refers to modbus_regop.o(.data) for i
    modbus_regop.o(.text) refers to udp_scan.o(.data) for IP_Change
    modbus_regop.o(.text) refers to modbus.o(.data) for SERIAL_RECEIVE_TIMEOUT
    modbus_regop.o(.text) refers to inputs.o(.text) for pulse_set
    modbus_regop.o(.text) refers to main.o(.text) for EEP_Dat_Init
    modbus_response.o(.text) refers to rt_memcpy_v6.o(.text) for __aeabi_memcpy
    modbus_response.o(.text) refers to modbus.o(.text) for USART_SendDataString
    modbus_response.o(.text) refers to crc.o(.text) for crc16_byte
    modbus_response.o(.text) refers to modbus_response.o(.data) for send_cout
    modbus_response.o(.text) refers to modbus_regop.o(.data) for i
    modbus_response.o(.text) refers to modbus.o(.data) for rece_size
    modbus_response.o(.text) refers to modbus.o(.bss) for uart_send
    modbus_response.o(.text) refers to tcp_modbus.o(.bss) for tcp_server_sendbuf
    modbus_response.o(.text) refers to tcp_modbus.o(.data) for tcp_server_sendlen
    modbus_response.o(.text) refers to crc.o(.data) for CRChi
    stm32f10x_adc.o(.text) refers to stm32f10x_rcc.o(.text) for RCC_APB2PeriphResetCmd
    stm32f10x_dac.o(.text) refers to stm32f10x_rcc.o(.text) for RCC_APB1PeriphResetCmd
    stm32f10x_gpio.o(.text) refers to stm32f10x_rcc.o(.text) for RCC_APB2PeriphResetCmd
    stm32f10x_rcc.o(.text) refers to stm32f10x_rcc.o(.data) for APBAHBPrescTable
    stm32f10x_spi.o(.text) refers to stm32f10x_rcc.o(.text) for RCC_APB2PeriphResetCmd
    stm32f10x_tim.o(.text) refers to stm32f10x_rcc.o(.text) for RCC_APB2PeriphResetCmd
    stm32f10x_usart.o(.text) refers to stm32f10x_rcc.o(.text) for RCC_APB2PeriphResetCmd
    stm32f10x_wwdg.o(.text) refers to stm32f10x_rcc.o(.text) for RCC_APB1PeriphResetCmd
    stm32f10x_bkp.o(.text) refers to stm32f10x_rcc.o(.text) for RCC_BackupResetCmd
    stm32f10x_pwr.o(.text) refers to stm32f10x_rcc.o(.text) for RCC_APB1PeriphResetCmd
    startup_stm32f10x_hd.o(STACK) refers (Special) to heapauxi.o(.text) for __use_two_region_memory
    startup_stm32f10x_hd.o(HEAP) refers (Special) to heapauxi.o(.text) for __use_two_region_memory
    startup_stm32f10x_hd.o(RESET) refers (Special) to heapauxi.o(.text) for __use_two_region_memory
    startup_stm32f10x_hd.o(RESET) refers to startup_stm32f10x_hd.o(STACK) for __initial_sp
    startup_stm32f10x_hd.o(RESET) refers to startup_stm32f10x_hd.o(.text) for Reset_Handler
    startup_stm32f10x_hd.o(RESET) refers to stm32f10x_it.o(.text) for NMI_Handler
    startup_stm32f10x_hd.o(RESET) refers to port.o(.emb_text) for vPortSVCHandler
    startup_stm32f10x_hd.o(RESET) refers to port.o(.text) for xPortSysTickHandler
    startup_stm32f10x_hd.o(RESET) refers to inputs.o(.text) for EXTI0_IRQHandler
    startup_stm32f10x_hd.o(RESET) refers to timerx.o(.text) for TIM3_IRQHandler
    startup_stm32f10x_hd.o(RESET) refers to modbus.o(.text) for USART1_IRQHandler
    startup_stm32f10x_hd.o(.text) refers (Special) to heapauxi.o(.text) for __use_two_region_memory
    startup_stm32f10x_hd.o(.text) refers to system_stm32f10x.o(.text) for SystemInit
    startup_stm32f10x_hd.o(.text) refers to __main.o(!!!main) for __main
    startup_stm32f10x_hd.o(.text) refers to startup_stm32f10x_hd.o(HEAP) for Heap_Mem
    startup_stm32f10x_hd.o(.text) refers to startup_stm32f10x_hd.o(STACK) for Stack_Mem
    led.o(.text) refers to stm32f10x_rcc.o(.text) for RCC_APB2PeriphClockCmd
    led.o(.text) refers to stm32f10x_gpio.o(.text) for GPIO_Init
    led.o(.text) refers to led.o(.data) for beat_count
    led.o(.text) refers to modbus.o(.bss) for modbus
    myiic.o(.text) refers to stm32f10x_rcc.o(.text) for RCC_APB2PeriphClockCmd
    myiic.o(.text) refers to stm32f10x_gpio.o(.text) for GPIO_Init
    myiic.o(.text) refers to delay.o(.text) for delay_us
    24cxx.o(.text) refers to myiic.o(.text) for IIC_Init
    24cxx.o(.text) refers to delay.o(.text) for delay_ms
    spi.o(.text) refers to stm32f10x_spi.o(.text) for SPI_Cmd
    spi.o(.text) refers to stm32f10x_rcc.o(.text) for RCC_APB2PeriphClockCmd
    spi.o(.text) refers to stm32f10x_gpio.o(.text) for GPIO_PinRemapConfig
    flash.o(.text) refers to _printf_percent.o(.ARM.Collect$$_printf_percent$$00000000) for _printf_percent
    flash.o(.text) refers to _printf_x.o(.ARM.Collect$$_printf_percent$$0000000C) for _printf_x
    flash.o(.text) refers to _printf_hex_int.o(.text) for _printf_longlong_hex
    flash.o(.text) refers to spi.o(.text) for SPI1_ReadWriteByte
    flash.o(.text) refers to stm32f10x_rcc.o(.text) for RCC_APB2PeriphClockCmd
    flash.o(.text) refers to stm32f10x_gpio.o(.text) for GPIO_Init
    flash.o(.text) refers to __2printf.o(.text) for __2printf
    flash.o(.text) refers to delay.o(.text) for delay_us
    flash.o(.text) refers to flash.o(.data) for SPI_FLASH_TYPE
    flash.o(.text) refers to flash.o(.bss) for SPI_FLASH_BUFFER
    stmflash.o(.text) refers to delay.o(.text) for delay_us
    stmflash.o(.text) refers to stmflash.o(.bss) for STMFLASH_BUF
    dma.o(.text) refers to delay.o(.text) for delay_ms
    dma.o(.text) refers to dma.o(.data) for DMA1_MEM_LEN
    timerx.o(.text) refers to stm32f10x_tim.o(.text) for TIM_GetFlagStatus
    timerx.o(.text) refers to stm32f10x_rcc.o(.text) for RCC_APB1PeriphClockCmd
    timerx.o(.text) refers to misc.o(.text) for NVIC_Init
    timerx.o(.text) refers to timerx.o(.data) for uip_timer
    timerx.o(.text) refers to bacnettimer.o(.data) for SilenceTime
    enc28j60.o(.text) refers to stm32f10x_rcc.o(.text) for RCC_APB2PeriphClockCmd
    enc28j60.o(.text) refers to stm32f10x_gpio.o(.text) for GPIO_Init
    enc28j60.o(.text) refers to timerx.o(.text) for TIM6_Int_Init
    enc28j60.o(.text) refers to delay.o(.text) for delay_ms
    enc28j60.o(.text) refers to spi.o(.text) for SPI1_ReadWriteByte
    enc28j60.o(.text) refers to enc28j60.o(.data) for ENC28J60BANK
    lcd.o(.text) refers to _printf_percent.o(.ARM.Collect$$_printf_percent$$00000000) for _printf_percent
    lcd.o(.text) refers to _printf_u.o(.ARM.Collect$$_printf_percent$$0000000A) for _printf_u
    lcd.o(.text) refers to _printf_dec.o(.text) for _printf_int_dec
    lcd.o(.text) refers to _printf_pad.o(.text) for _printf_pre_padding
    lcd.o(.text) refers to _printf_f.o(.ARM.Collect$$_printf_percent$$00000003) for _printf_f
    lcd.o(.text) refers to printf1.o(x$fpl$printf1) for _printf_fp_dec
    lcd.o(.text) refers to delay.o(.text) for delay_ms
    lcd.o(.text) refers to strlen.o(.text) for strlen
    lcd.o(.text) refers to __2sprintf.o(.text) for __2sprintf
    lcd.o(.text) refers to dflt_clz.o(x$fpl$dfltu) for __aeabi_ui2d
    lcd.o(.text) refers to ddiv.o(x$fpl$ddiv) for __aeabi_ddiv
    lcd.o(.text) refers to d2f.o(x$fpl$d2f) for __aeabi_d2f
    lcd.o(.text) refers to f2d.o(x$fpl$f2d) for __aeabi_f2d
    lcd.o(.text) refers to lcd.o(.constdata) for Dot6_16
    lcd.o(.text) refers to lcd.o(.data) for blank
    lcd.o(.text) refers to lcd.o(.bss) for message
    mmc_sd.o(.text) refers to spi.o(.text) for SPI2_ReadWriteByte
    mmc_sd.o(.text) refers to stm32f10x_rcc.o(.text) for RCC_APB2PeriphClockCmd
    mmc_sd.o(.text) refers to stm32f10x_gpio.o(.text) for GPIO_Init
    mmc_sd.o(.text) refers to mmc_sd.o(.data) for SD_Type
    rtc.o(.text) refers to stm32f10x_rtc.o(.text) for RTC_GetCounter
    rtc.o(.text) refers to stm32f10x_rcc.o(.text) for RCC_APB1PeriphClockCmd
    rtc.o(.text) refers to stm32f10x_pwr.o(.text) for PWR_BackupAccessCmd
    rtc.o(.text) refers to stm32f10x_bkp.o(.text) for BKP_ReadBackupRegister
    rtc.o(.text) refers to delay.o(.text) for delay_ms
    rtc.o(.text) refers to rtc.o(.constdata) for table_week
    rtc.o(.text) refers to rtc.o(.data) for daycnt
    rtc.o(.text) refers to rtc.o(.bss) for calendar
    inputs.o(.text) refers to stm32f10x_gpio.o(.text) for GPIO_Init
    inputs.o(.text) refers to stm32f10x_rcc.o(.text) for RCC_APB2PeriphClockCmd
    inputs.o(.text) refers to stm32f10x_adc.o(.text) for ADC_Init
    inputs.o(.text) refers to filter.o(.text) for filter_inputs
    inputs.o(.text) refers to delay.o(.text) for delay_ms
    inputs.o(.text) refers to stm32f10x_exti.o(.text) for EXTI_Init
    inputs.o(.text) refers to misc.o(.text) for NVIC_Init
    inputs.o(.text) refers to inputs.o(.bss) for AD_Value
    inputs.o(.text) refers to inputs.o(.data) for channel_count
    inputs.o(.text) refers to modbus.o(.bss) for modbus
    inputs.o(.text) refers to inputs.o(.constdata) for _STR_PLUSE_SETTING_
    key.o(.text) refers to stm32f10x_rcc.o(.text) for RCC_APB2PeriphClockCmd
    key.o(.text) refers to stm32f10x_gpio.o(.text) for GPIO_Init
    tasks.o(.text) refers to list.o(.text) for vListInitialise
    tasks.o(.text) refers to strncpy.o(.text) for strncpy
    tasks.o(.text) refers to heap_2.o(.text) for pvPortMalloc
    tasks.o(.text) refers to aeabi_memset.o(.text) for __aeabi_memset
    tasks.o(.text) refers to port.o(.text) for pxPortInitialiseStack
    tasks.o(.text) refers to tasks.o(.bss) for pxReadyTasksLists
    tasks.o(.text) refers to tasks.o(.data) for pxDelayedTaskList
    tasks.o(.text) refers to port.o(.emb_text) for vPortSetInterruptMask
    queue.o(.text) refers to heap_2.o(.text) for pvPortMalloc
    queue.o(.text) refers to list.o(.text) for vListInitialise
    queue.o(.text) refers to port.o(.text) for vPortEnterCritical
    queue.o(.text) refers to tasks.o(.text) for xTaskRemoveFromEventList
    queue.o(.text) refers to rt_memcpy_v6.o(.text) for __aeabi_memcpy
    queue.o(.text) refers to port.o(.emb_text) for vPortSetInterruptMask
    port.o(.emb_text) refers to tasks.o(.text) for vTaskSwitchContext
    port.o(.emb_text) refers to tasks.o(.data) for pxCurrentTCB
    port.o(.text) refers to port.o(.emb_text) for vPortStartFirstTask
    port.o(.text) refers to tasks.o(.text) for vTaskIncrementTick
    port.o(.text) refers to port.o(.data) for uxCriticalNesting
    heap_2.o(.text) refers to tasks.o(.text) for vTaskSuspendAll
    heap_2.o(.text) refers to heap_2.o(.data) for xHeapHasBeenInitialised
    heap_2.o(.text) refers to heap_2.o(.bss) for xHeap
    usart.o(.text) refers (Special) to use_no_semi_2.o(.text) for __use_no_semihosting
    usart.o(.text) refers to stm32f10x_usart.o(.text) for USART_GetFlagStatus
    usart.o(.text) refers to stm32f10x_rcc.o(.text) for RCC_APB2PeriphClockCmd
    usart.o(.text) refers to stm32f10x_gpio.o(.text) for GPIO_Init
    usart.o(.text) refers to misc.o(.text) for NVIC_Init
    usart.o(.data) refers (Special) to use_no_semi_2.o(.text) for __use_no_semihosting
    delay.o(.text) refers to port.o(.text) for vPortEnterCritical
    delay.o(.text) refers to tasks.o(.text) for xTaskGetSchedulerState
    delay.o(.text) refers to delay.o(.data) for fac_us
    diskio.o(.text) refers to mmc_sd.o(.text) for SD_Initialize
    diskio.o(.text) refers to flash.o(.text) for SPI_Flash_Init
    diskio.o(.text) refers to vmalloc.o(.text) for mymalloc
    diskio.o(.text) refers to flash.o(.data) for SPI_FLASH_TYPE
    diskio.o(.text) refers to diskio.o(.data) for FLASH_SECTOR_COUNT
    ff.o(.text) refers to diskio.o(.text) for disk_write
    ff.o(.text) refers to ff.o(.data) for FatFs
    ff.o(.text) refers to ff.o(.constdata) for vst
    psock.o(.text) refers to rt_memcpy_v6.o(.text) for __aeabi_memcpy
    psock.o(.text) refers to uip.o(.text) for uip_send
    psock.o(.text) refers to __2printf.o(.text) for __2printf
    psock.o(.text) refers to uip.o(.data) for uip_flags
    timer.o(.text) refers to clock-arch.o(.text) for clock_time
    uip.o(.text) refers to uip.o(.data) for ipid
    uip.o(.text) refers to uip.o(.bss) for uip_buf
    uip.o(.text) refers to tcp_demo.o(.text) for tcp_appcall
    uip.o(.text) refers to udp_scan.o(.text) for udp_appcall
    uip.o(.text) refers to uip.o(.constdata) for all_zeroes_addr
    uip.o(.text) refers to rt_memcpy_v6.o(.text) for __aeabi_memcpy
    uip_arp.o(.text) refers to aeabi_memset.o(.text) for __aeabi_memset
    uip_arp.o(.text) refers to uip_arp.o(.data) for i
    uip_arp.o(.text) refers to uip_arp.o(.bss) for arp_table
    uip_arp.o(.text) refers to uip.o(.data) for uip_len
    uip_arp.o(.text) refers to uip.o(.bss) for uip_buf
    uip_arp.o(.text) refers to uip_arp.o(.constdata) for broadcast_ipaddr
    uip-fw.o(.text) refers to rt_memcpy_v6.o(.text) for __aeabi_memcpy
    uip-fw.o(.text) refers to uip.o(.text) for uip_chksum
    uip-fw.o(.text) refers to uip-fw.o(.data) for defaultnetif
    uip-fw.o(.text) refers to uip.o(.bss) for uip_buf
    uip-fw.o(.text) refers to uip.o(.data) for uip_len
    uip-fw.o(.text) refers to uip-fw.o(.bss) for fwcache
    uip-neighbor.o(.text) refers to uip-neighbor.o(.bss) for entries
    uip-split.o(.text) refers to uip.o(.text) for uip_tcpchksum
    uip-split.o(.text) refers to uip-fw.o(.text) for uip_fw_output
    uip-split.o(.text) refers to rt_memcpy_v6.o(.text) for __aeabi_memcpy
    uip-split.o(.text) refers to uip.o(.bss) for uip_buf
    uip-split.o(.text) refers to uip.o(.data) for uip_len
    clock-arch.o(.text) refers to timerx.o(.data) for uip_timer
    tapdev.o(.text) refers to enc28j60.o(.text) for ENC28J60_Init
    tapdev.o(.text) refers to uip.o(.text) for uip_init
    tapdev.o(.text) refers to delay.o(.text) for delay_ms
    tapdev.o(.text) refers to udp_scan.o(.text) for udp_scan_init
    tapdev.o(.text) refers to dhcpc.o(.text) for dhcpc_init
    tapdev.o(.text) refers to modbus.o(.bss) for modbus
    tapdev.o(.text) refers to uip.o(.data) for uip_ethaddr
    tapdev.o(.text) refers to uip.o(.bss) for uip_buf
    tcp_client_demo.o(.text) refers to uip.o(.text) for uip_send
    tcp_client_demo.o(.text) refers to tcp_demo.o(.text) for uip_log
    tcp_client_demo.o(.text) refers to strcpy.o(.text) for strcpy
    tcp_client_demo.o(.text) refers to strlen.o(.text) for strlen
    tcp_client_demo.o(.text) refers to uip.o(.data) for uip_conn
    tcp_client_demo.o(.text) refers to tcp_client_demo.o(.data) for tcp_client_sta
    tcp_client_demo.o(.text) refers to tcp_client_demo.o(.bss) for tcp_client_databuf
    tcp_demo.o(.text) refers to httpd.o(.text) for httpd_appcall
    tcp_demo.o(.text) refers to tcp_modbus.o(.text) for tcp_server_appcall
    tcp_demo.o(.text) refers to tcp_client_demo.o(.text) for tcp_client_demo_appcall
    tcp_demo.o(.text) refers to uip.o(.data) for uip_conn
    tcp_demo.o(.text) refers to modbus.o(.bss) for modbus
    udp_demo.o(.text) refers to _printf_percent.o(.ARM.Collect$$_printf_percent$$00000000) for _printf_percent
    udp_demo.o(.text) refers to _printf_d.o(.ARM.Collect$$_printf_percent$$00000009) for _printf_d
    udp_demo.o(.text) refers to _printf_dec.o(.text) for _printf_int_dec
    udp_demo.o(.text) refers to _printf_s.o(.ARM.Collect$$_printf_percent$$00000014) for _printf_s
    udp_demo.o(.text) refers to _printf_str.o(.text) for _printf_str
    udp_demo.o(.text) refers to uip.o(.text) for uip_listen
    udp_demo.o(.text) refers to __2printf.o(.text) for __2printf
    udp_demo.o(.text) refers to strlen.o(.text) for strlen
    udp_demo.o(.text) refers to uip.o(.bss) for uip_udp_conns
    udp_demo.o(.text) refers to uip.o(.data) for uip_flags
    dhcpc.o(.text) refers to rt_memcpy_v6.o(.text) for __aeabi_memcpy
    dhcpc.o(.text) refers to rt_memclr.o(.text) for __aeabi_memclr
    dhcpc.o(.text) refers to uip.o(.text) for uip_send
    dhcpc.o(.text) refers to memcmp.o(.text) for memcmp
    dhcpc.o(.text) refers to timer.o(.text) for timer_set
    dhcpc.o(.text) refers to dhcpc.o(.bss) for s
    dhcpc.o(.text) refers to dhcpc.o(.constdata) for xid
    dhcpc.o(.text) refers to uip.o(.data) for uip_hostaddr
    dhcpc.o(.text) refers to modbus.o(.bss) for modbus
    dhcpc.o(.text) refers to timerx.o(.data) for dhcp_run_time
    dhcpc.o(.text) refers to udp_scan.o(.text) for dhcpc_configured
    resolv.o(.text) refers to _printf_percent.o(.ARM.Collect$$_printf_percent$$00000000) for _printf_percent
    resolv.o(.text) refers to _printf_s.o(.ARM.Collect$$_printf_percent$$00000014) for _printf_s
    resolv.o(.text) refers to _printf_str.o(.text) for _printf_str
    resolv.o(.text) refers to _printf_d.o(.ARM.Collect$$_printf_percent$$00000009) for _printf_d
    resolv.o(.text) refers to _printf_dec.o(.text) for _printf_int_dec
    resolv.o(.text) refers to __2printf.o(.text) for __2printf
    resolv.o(.text) refers to uip.o(.text) for htons
    resolv.o(.text) refers to strcpy.o(.text) for strcpy
    resolv.o(.text) refers to strcmpv7m.o(.text) for strcmp
    resolv.o(.text) refers to resolv.o(.data) for i
    resolv.o(.text) refers to resolv.o(.bss) for names
    resolv.o(.text) refers to uip.o(.data) for uip_appdata
    httpd.o(.text) refers to rt_memcpy_v6.o(.text) for __aeabi_memcpy
    httpd.o(.text) refers to psock.o(.text) for psock_generator_send
    httpd.o(.text) refers to strchr.o(.text) for strchr
    httpd.o(.text) refers to httpd-fs.o(.text) for httpd_fs_open
    httpd.o(.text) refers to httpd-cgi.o(.text) for httpd_cgi
    httpd.o(.text) refers to strlen.o(.text) for strlen
    httpd.o(.text) refers to strrchr.o(.text) for strrchr
    httpd.o(.text) refers to strncmp.o(.text) for strncmp
    httpd.o(.text) refers to uip.o(.data) for uip_conn
    httpd.o(.text) refers to http-strings.o(.constdata) for http_content_type_binary
    httpd.o(.text) refers to strcpy.o(.text) for strcpy
    httpd.o(.text) refers to __2printf.o(.text) for __2printf
    httpd.o(.text) refers to strstr.o(.text) for strstr
    httpd.o(.text) refers to strncpy.o(.text) for strncpy
    httpd.o(.text) refers to httpd-fs.o(.data) for data_index_html
    httpd.o(.text) refers to httpd.o(.data) for LED_OFF_PIC_ADDR
    httpd.o(.text) refers to uip.o(.text) for uip_listen
    httpd.o(.data) refers to httpd.o(.conststring) for .conststring
    httpd-cgi.o(.text) refers to _printf_pad.o(.text) for _printf_pre_padding
    httpd-cgi.o(.text) refers to _printf_percent.o(.ARM.Collect$$_printf_percent$$00000000) for _printf_percent
    httpd-cgi.o(.text) refers to _printf_u.o(.ARM.Collect$$_printf_percent$$0000000A) for _printf_u
    httpd-cgi.o(.text) refers to _printf_dec.o(.text) for _printf_int_dec
    httpd-cgi.o(.text) refers to _printf_d.o(.ARM.Collect$$_printf_percent$$00000009) for _printf_d
    httpd-cgi.o(.text) refers to _printf_c.o(.ARM.Collect$$_printf_percent$$00000013) for _printf_c
    httpd-cgi.o(.text) refers to _printf_s.o(.ARM.Collect$$_printf_percent$$00000014) for _printf_s
    httpd-cgi.o(.text) refers to _printf_str.o(.text) for _printf_str
    httpd-cgi.o(.text) refers to strlen.o(.text) for strlen
    httpd-cgi.o(.text) refers to strncmp.o(.text) for strncmp
    httpd-cgi.o(.text) refers to httpd-fs.o(.text) for httpd_fs_count
    httpd-cgi.o(.text) refers to __2snprintf.o(.text) for __2snprintf
    httpd-cgi.o(.text) refers to strchr.o(.text) for strchr
    httpd-cgi.o(.text) refers to psock.o(.text) for psock_generator_send
    httpd-cgi.o(.text) refers to uip.o(.text) for htons
    httpd-cgi.o(.text) refers to httpd-cgi.o(.data) for calls
    httpd-cgi.o(.text) refers to uip.o(.data) for uip_appdata
    httpd-cgi.o(.text) refers to uip.o(.bss) for uip_conns
    httpd-cgi.o(.text) refers to httpd-cgi.o(.constdata) for .constdata
    httpd-cgi.o(.constdata) refers to httpd-cgi.o(.conststring) for .conststring
    httpd-cgi.o(.constdata) refers to httpd-cgi.o(.text) for file_stats
    httpd-cgi.o(.data) refers to httpd-cgi.o(.constdata) for file
    httpd-fs.o(.text) refers to httpd-fs.o(.constdata) for file_stats_shtml
    httpd-fs.o(.text) refers to httpd-fs.o(.bss) for count
    httpd-fs.o(.constdata) refers to httpd-fs.o(.data) for data_index_html
    udp_scan.o(.text) refers to uip.o(.text) for uip_listen
    udp_scan.o(.text) refers to rt_memclr.o(.text) for __aeabi_memclr
    udp_scan.o(.text) refers to rt_memcpy_v6.o(.text) for __aeabi_memcpy
    udp_scan.o(.text) refers to 24cxx.o(.text) for AT24CXX_WriteOneByte
    udp_scan.o(.text) refers to dhcpc.o(.text) for dhcpc_appcall
    udp_scan.o(.text) refers to resolv.o(.text) for resolv_appcall
    udp_scan.o(.text) refers to uip.o(.bss) for uip_udp_conns
    udp_scan.o(.text) refers to udp_scan.o(.bss) for InformationStr
    udp_scan.o(.text) refers to modbus.o(.bss) for modbus
    udp_scan.o(.text) refers to udp_scan.o(.data) for state
    udp_scan.o(.text) refers to uip.o(.data) for uip_flags
    udp_scan.o(.text) refers to modbus.o(.data) for Station_NUM
    tcp_modbus.o(.text) refers to uip.o(.text) for uip_send
    tcp_modbus.o(.text) refers to tcp_demo.o(.text) for uip_log
    tcp_modbus.o(.text) refers to rt_memcpy_v6.o(.text) for __aeabi_memcpy
    tcp_modbus.o(.text) refers to modbus.o(.text) for responseCmd
    tcp_modbus.o(.text) refers to uip.o(.data) for uip_conn
    tcp_modbus.o(.text) refers to tcp_modbus.o(.data) for tcp_server_sta
    tcp_modbus.o(.text) refers to tcp_modbus.o(.bss) for tcp_server_databuf
    tcp_modbus.o(.text) refers to modbus.o(.bss) for modbus
    modbus.o(.text) refers to stm32f10x_usart.o(.text) for USART_GetITStatus
    modbus.o(.text) refers to fifo.o(.text) for FIFO_Put
    modbus.o(.text) refers to bacnettimer.o(.text) for Timer_Silence_Reset
    modbus.o(.text) refers to crc.o(.text) for crc16_byte
    modbus.o(.text) refers to modbus_regop.o(.text) for multiple_write_modbus
    modbus.o(.text) refers to 24cxx.o(.text) for AT24CXX_WriteOneByte
    modbus.o(.text) refers to main.o(.text) for EEP_Dat_Init
    modbus.o(.text) refers to modbus_response.o(.text) for response_write_variables
    modbus.o(.text) refers to modbus.o(.data) for revce_count
    modbus.o(.text) refers to modbus.o(.bss) for modbus
    modbus.o(.text) refers to led.o(.data) for rx_count
    modbus.o(.text) refers to rs485.o(.bss) for Receive_Buffer0
    modbus.o(.text) refers to rand.o(.text) for srand
    modbus.o(.text) refers to rand.o(.emb_text) for rand
    modbus.o(.text) refers to delay.o(.text) for delay_us
    crc.o(.text) refers to crc.o(.data) for CRClo
    crc.o(.text) refers to crc.o(.constdata) for auchCRCHi
    filter.o(.text) refers to fflt_clz.o(x$fpl$fflt) for __aeabi_i2f
    filter.o(.text) refers to fdiv.o(x$fpl$fdiv) for __aeabi_fdiv
    filter.o(.text) refers to fmul.o(x$fpl$fmul) for __aeabi_fmul
    filter.o(.text) refers to ffix.o(x$fpl$ffix) for __aeabi_f2iz
    filter.o(.text) refers to filter.o(.data) for thermistor_type
    filter.o(.text) refers to filter.o(.constdata) for def_tab_pic_Type2_10K
    filter.o(.text) refers to modbus.o(.bss) for modbus
    filter.o(.text) refers to filter.o(.bss) for analog_in_buffer
    bacdcode.o(.text) refers to bacint.o(.text) for encode_unsigned16
    bacdcode.o(.text) refers to bacstr.o(.text) for bitstring_init
    bacdcode.o(.text) refers to bacreal.o(.text) for encode_bacnet_real
    bacreal.o(.text) refers to bacdcode.o(.text) for decode_is_context_tag
    mstptext.o(.text) refers to indtext.o(.text) for indtext_by_index_default
    mstptext.o(.text) refers to mstptext.o(.data) for mstp_receive_state_text
    mstptext.o(.data) refers to mstptext.o(.conststring) for .conststring
    bacprop.o(.text) refers to bacprop.o(.data) for bacnet_object_device_property_tag_map
    bacpropstates.o(.text) refers to bacdcode.o(.text) for decode_tag_number_and_value
    datalink.o(.text) refers to dlmstp.o(.text) for dlmstp_send_pdu
    datalink.o(.text) refers to bip.o(.text) for bip_get_broadcast_address
    datalink.o(.text) refers to modbus.o(.bss) for modbus
    datetime.o(.text) refers to rt_memcpy_w.o(.text) for __aeabi_memcpy4
    datetime.o(.text) refers to datetime.o(.constdata) for .constdata
    datetime.o(.text) refers to bacdcode.o(.text) for encode_application_date
    dcc.o(.text) refers to bacdcode.o(.text) for encode_max_segs_max_apdu
    dcc.o(.text) refers to bacstr.o(.text) for characterstring_init_ansi
    dcc.o(.text) refers to dcc.o(.data) for DCC_Enable_Disable
    indtext.o(.text) refers to tolower.o(.text) for tolower
    indtext.o(.text) refers to strcmpv7m.o(.text) for strcmp
    bacerror.o(.text) refers to bacdcode.o(.text) for encode_application_enumerated
    h_npdu.o(.text) refers to rt_memclr_w.o(.text) for __aeabi_memclr4
    h_npdu.o(.text) refers to npdu.o(.text) for npdu_decode
    h_npdu.o(.text) refers to apdu.o(.text) for apdu_handler
    ao.o(.text) refers to fflt_clz.o(x$fpl$ffltu) for __aeabi_ui2f
    ao.o(.text) refers to frleqf.o(x$fpl$frleqf) for __aeabi_cfrcmple
    ao.o(.text) refers to fleqf.o(x$fpl$fleqf) for __aeabi_cfcmple
    ao.o(.text) refers to ffixu.o(x$fpl$ffixu) for __aeabi_f2uiz
    ao.o(.text) refers to bacstr.o(.text) for characterstring_init_ansi
    ao.o(.text) refers to bacdcode.o(.text) for encode_application_object_id
    ao.o(.text) refers to bacapp.o(.text) for bacapp_decode_application_data
    ao.o(.text) refers to ao.o(.bss) for AO_Present_Value
    ao.o(.text) refers to ao.o(.data) for Analog_Output_Out_Of_Service
    ao.o(.text) refers to h_wp.o(.text) for WPValidateArgType
    bi.o(.text) refers to _printf_percent.o(.ARM.Collect$$_printf_percent$$00000000) for _printf_percent
    bi.o(.text) refers to _printf_u.o(.ARM.Collect$$_printf_percent$$0000000A) for _printf_u
    bi.o(.text) refers to _printf_dec.o(.text) for _printf_int_dec
    bi.o(.text) refers to bacstr.o(.text) for bitstring_init
    bi.o(.text) refers to __2sprintf.o(.text) for __2sprintf
    bi.o(.text) refers to bacdcode.o(.text) for encode_application_object_id
    bi.o(.text) refers to bacapp.o(.text) for bacapp_decode_application_data
    bi.o(.text) refers to h_wp.o(.text) for WPValidateArgType
    bi.o(.text) refers to bi.o(.constdata) for Binary_Input_Properties_Required
    bi.o(.text) refers to bi.o(.data) for initialized
    bi.o(.text) refers to bi.o(.bss) for text_string
    bo.o(.text) refers to _printf_percent.o(.ARM.Collect$$_printf_percent$$00000000) for _printf_percent
    bo.o(.text) refers to _printf_u.o(.ARM.Collect$$_printf_percent$$0000000A) for _printf_u
    bo.o(.text) refers to _printf_dec.o(.text) for _printf_int_dec
    bo.o(.text) refers to __2sprintf.o(.text) for __2sprintf
    bo.o(.text) refers to bacstr.o(.text) for characterstring_init_ansi
    bo.o(.text) refers to bacdcode.o(.text) for encode_application_object_id
    bo.o(.text) refers to bacapp.o(.text) for bacapp_decode_application_data
    bo.o(.text) refers to bo.o(.constdata) for Binary_Output_Properties_Required
    bo.o(.text) refers to bo.o(.bss) for BO_Present_Value
    bo.o(.text) refers to h_wp.o(.text) for WPValidateArgType
    dlmstp.o(.text) refers to bacnettimer.o(.text) for Timer_Silence_Reset
    dlmstp.o(.text) refers to s_iam.o(.text) for iam_encode_pdu
    dlmstp.o(.text) refers to bacnetcrc.o(.text) for CRC_Calc_Header
    dlmstp.o(.text) refers to rs485.o(.text) for RS485_Turnaround_Delay
    dlmstp.o(.text) refers to rt_memcpy_v6.o(.text) for __aeabi_memcpy
    dlmstp.o(.text) refers to dlmstp.o(.data) for Receive_State
    dlmstp.o(.text) refers to modbus.o(.data) for Station_NUM
    dlmstp.o(.text) refers to h_whois.o(.data) for Send_I_Am_Flag
    dlmstp.o(.text) refers to dlmstp.o(.bss) for TransmitPacket
    dlmstp.o(.text) refers to modbus.o(.bss) for modbus
    bacnettimer.o(.text) refers to bacnettimer.o(.data) for SilenceTime
    s_iam.o(.text) refers to datalink.o(.text) for datalink_get_my_address
    s_iam.o(.text) refers to npdu.o(.text) for npdu_encode_npdu_data
    s_iam.o(.text) refers to device.o(.text) for Device_Vendor_Identifier
    s_iam.o(.text) refers to iam.o(.text) for iam_encode_apdu
    s_iam.o(.text) refers to bacaddr.o(.text) for bacnet_address_copy
    s_iam.o(.text) refers to modbus.o(.bss) for modbus
    s_whois.o(.text) refers to datalink.o(.text) for datalink_get_my_address
    s_whois.o(.text) refers to npdu.o(.text) for npdu_encode_npdu_data
    s_whois.o(.text) refers to whois.o(.text) for whois_encode_apdu
    s_whois.o(.text) refers to dcc.o(.text) for dcc_communication_enabled
    s_whois.o(.text) refers to modbus.o(.bss) for modbus
    s_whois.o(.text) refers to txbuf.o(.bss) for Handler_Transmit_Buffer
    rp.o(.text) refers to bacdcode.o(.text) for encode_max_segs_max_apdu
    noserv.o(.text) refers to datalink.o(.text) for datalink_get_my_address
    noserv.o(.text) refers to npdu.o(.text) for npdu_encode_npdu_data
    noserv.o(.text) refers to reject.o(.text) for reject_encode_apdu
    noserv.o(.text) refers to modbus.o(.bss) for modbus
    noserv.o(.text) refers to txbuf.o(.bss) for Handler_Transmit_Buffer
    s_upt.o(.text) refers to datalink.o(.text) for datalink_get_my_address
    s_upt.o(.text) refers to npdu.o(.text) for npdu_encode_npdu_data
    s_upt.o(.text) refers to ptransfer.o(.text) for ptransfer_ack_encode_apdu
    s_upt.o(.text) refers to modbus.o(.bss) for modbus
    s_upt.o(.text) refers to txbuf.o(.bss) for Handler_Transmit_Buffer
    s_upt.o(.text) refers to ptransfer.o(.data) for invoke_id
    bvlc.o(.text) refers to bacint.o(.text) for encode_unsigned16
    bvlc.o(.text) refers to bip.o(.text) for bip_socket
    bvlc.o(.text) refers to bip.o(.bss) for mtu
    bvlc.o(.text) refers to bvlc.o(.bss) for Remote_BBMD
    bvlc.o(.text) refers to bvlc.o(.data) for BVLC_Function_Code
    bacapp.o(.text) refers to _scanf_int.o(.text) for _scanf_int
    bacapp.o(.text) refers to bacdcode.o(.text) for encode_application_boolean
    bacapp.o(.text) refers to bacreal.o(.text) for decode_real_safe
    bacapp.o(.text) refers to bacapp.o(.data) for apdu
    bacapp.o(.text) refers to bacstr.o(.text) for octetstring_copy
    bacapp.o(.text) refers to datetime.o(.text) for datetime_copy_date
    bacapp.o(.text) refers to strtol.o(.text) for strtol
    bacapp.o(.text) refers to strtoul.o(.text) for strtoul
    bacapp.o(.text) refers to strtod.o(i.strtod) for strtod
    bacapp.o(.text) refers to d2f.o(x$fpl$d2f) for __aeabi_d2f
    bacapp.o(.text) refers to __0sscanf.o(.text) for __0sscanf
    av.o(.text) refers to rt_memcpy_v6.o(.text) for __aeabi_memcpy
    av.o(.text) refers to bacdcode.o(.text) for encode_application_object_id
    av.o(.text) refers to bacstr.o(.text) for characterstring_init_ansi
    av.o(.text) refers to fflt_clz.o(x$fpl$ffltu) for __aeabi_ui2f
    av.o(.text) refers to bacapp.o(.text) for bacapp_decode_application_data
    av.o(.text) refers to ffixu.o(x$fpl$ffixu) for __aeabi_f2uiz
    av.o(.text) refers to 24cxx.o(.text) for AT24CXX_WriteOneByte
    av.o(.text) refers to usart.o(.text) for uart1_init
    av.o(.text) refers to av.o(.constdata) for av_name
    av.o(.text) refers to device.o(.data) for text_string
    av.o(.text) refers to modbus.o(.bss) for modbus
    av.o(.text) refers to av.o(.bss) for AV_Present_Value
    ai.o(.text) refers to bacdcode.o(.text) for encode_application_object_id
    ai.o(.text) refers to fflt_clz.o(x$fpl$ffltu) for __aeabi_ui2f
    ai.o(.text) refers to bacstr.o(.text) for bitstring_init
    ai.o(.text) refers to bacapp.o(.text) for bacapp_decode_application_data
    ai.o(.text) refers to ffixu.o(x$fpl$ffixu) for __aeabi_f2uiz
    ai.o(.text) refers to device.o(.data) for text_string
    ai.o(.text) refers to modbus.o(.bss) for modbus
    ai.o(.text) refers to ai.o(.bss) for AI_Present_Value
    h_wp.o(.text) refers to wp.o(.text) for wp_decode_service_request
    h_wp.o(.text) refers to datalink.o(.text) for datalink_get_my_address
    h_wp.o(.text) refers to npdu.o(.text) for npdu_encode_npdu_data
    h_wp.o(.text) refers to abort.o(.text) for abort_encode_apdu
    h_wp.o(.text) refers to device.o(.text) for Device_Write_Property
    h_wp.o(.text) refers to bacdcode.o(.text) for encode_simple_ack
    h_wp.o(.text) refers to bacerror.o(.text) for bacerror_encode_apdu
    h_wp.o(.text) refers to av.o(.text) for Analog_Value_Write_Property
    h_wp.o(.text) refers to ai.o(.text) for Analog_Input_Write_Property
    h_wp.o(.text) refers to ao.o(.text) for Analog_Output_Write_Property
    h_wp.o(.text) refers to bo.o(.text) for Binary_Output_Write_Property
    h_wp.o(.text) refers to bi.o(.text) for Binary_Input_Write_Property
    h_wp.o(.text) refers to h_wp.o(.bss) for wp_data
    h_wp.o(.text) refers to modbus.o(.bss) for modbus
    h_wp.o(.text) refers to txbuf.o(.bss) for Handler_Transmit_Buffer
    npdu.o(.text) refers to bacint.o(.text) for encode_unsigned16
    iam.o(.text) refers to bacdcode.o(.text) for encode_application_object_id
    whois.o(.text) refers to bacdcode.o(.text) for encode_context_unsigned
    apdu.o(.text) refers to bacdcode.o(.text) for decode_max_segs
    apdu.o(.text) refers to dcc.o(.text) for dcc_communication_disabled
    apdu.o(.text) refers to h_rp.o(.text) for handler_read_property
    apdu.o(.text) refers to h_wp.o(.text) for handler_write_property
    apdu.o(.text) refers to ptransfer.o(.text) for handler_private_transfer
    apdu.o(.text) refers to noserv.o(.text) for handler_unrecognized_service
    apdu.o(.text) refers to h_whois.o(.text) for handler_who_is
    apdu.o(.text) refers to s_iam.o(.text) for Send_I_Am
    apdu.o(.text) refers to apdu.o(.bss) for Confirmed_Function
    apdu.o(.text) refers to apdu.o(.data) for Unrecognized_Service_Handler
    apdu.o(.text) refers to modbus.o(.bss) for modbus
    apdu.o(.text) refers to txbuf.o(.bss) for Handler_Transmit_Buffer
    apdu.o(.text) refers to rt_memclr.o(.text) for __aeabi_memclr
    wp.o(.text) refers to bacdcode.o(.text) for encode_max_segs_max_apdu
    wp.o(.text) refers to bacapp.o(.text) for bacapp_data_len
    h_rp.o(.text) refers to __2printf.o(.text) for __2printf
    h_rp.o(.text) refers to device.o(.text) for Device_Object_Instance_Number
    h_rp.o(.text) refers to av.o(.text) for Analog_Value_Valid_Instance
    h_rp.o(.text) refers to ai.o(.text) for Analog_Input_Valid_Instance
    h_rp.o(.text) refers to ao.o(.text) for Analog_Output_Valid_Instance
    h_rp.o(.text) refers to bo.o(.text) for Binary_Output_Valid_Instance
    h_rp.o(.text) refers to bi.o(.text) for Binary_Input_Valid_Instance
    h_rp.o(.text) refers to datalink.o(.text) for datalink_get_my_address
    h_rp.o(.text) refers to npdu.o(.text) for npdu_encode_npdu_data
    h_rp.o(.text) refers to abort.o(.text) for abort_encode_apdu
    h_rp.o(.text) refers to rp.o(.text) for rp_decode_service_request
    h_rp.o(.text) refers to bacerror.o(.text) for bacerror_encode_apdu
    h_rp.o(.text) refers to txbuf.o(.bss) for Handler_Transmit_Buffer
    bacstr.o(.text) refers to strlen.o(.text) for strlen
    bacstr.o(.text) refers to bacstr.o(.constdata) for trailingBytesForUTF8
    bacstr.o(.text) refers to ptransfer.o(.data) for transfer_len
    h_whois.o(.text) refers to whois.o(.text) for whois_decode_service_request
    h_whois.o(.text) refers to device.o(.text) for Device_Object_Instance_Number
    h_whois.o(.text) refers to h_whois.o(.data) for Send_I_Am_Flag
    bip.o(.text) refers to rt_memcpy_v6.o(.text) for __aeabi_memcpy
    bip.o(.text) refers to bacint.o(.text) for encode_unsigned16
    bip.o(.text) refers to rt_memclr.o(.text) for __aeabi_memclr
    bip.o(.text) refers to bvlc.o(.text) for bvlc_for_non_bbmd
    bip.o(.text) refers to bip.o(.data) for bip_Conns
    bip.o(.text) refers to bip.o(.bss) for PDUBuffer_BIP
    bip.o(.text) refers to modbus.o(.bss) for modbus
    device.o(.text) refers to rt_memcpy_v6.o(.text) for __aeabi_memcpy
    device.o(.text) refers to av.o(.text) for Analog_Value_Count
    device.o(.text) refers to ai.o(.text) for Analog_Input_Count
    device.o(.text) refers to ao.o(.text) for Analog_Output_Count
    device.o(.text) refers to bo.o(.text) for Binary_Output_Count
    device.o(.text) refers to bi.o(.text) for Binary_Input_Count
    device.o(.text) refers to bacdcode.o(.text) for encode_application_object_id
    device.o(.text) refers to bacstr.o(.text) for characterstring_init_ansi
    device.o(.text) refers to apdu.o(.text) for apdu_service_supported
    device.o(.text) refers to __2printf.o(.text) for __2printf
    device.o(.text) refers to device.o(.bss) for Object_Name
    device.o(.text) refers to device.o(.data) for Object_Instance_Number
    device.o(.text) refers to bacapp.o(.text) for bacapp_decode_application_data
    ptransfer.o(.text) refers to bacdcode.o(.text) for encode_context_unsigned
    ptransfer.o(.text) refers to user_data.o(.text) for Initial_Panel_Info
    ptransfer.o(.text) refers to rt_memcpy_v6.o(.text) for __aeabi_memcpy
    ptransfer.o(.text) refers to bacapp.o(.text) for bacapp_parse_application_data
    ptransfer.o(.text) refers to s_upt.o(.text) for Send_UnconfirmedPrivateTransfer
    ptransfer.o(.text) refers to ptransfer.o(.data) for invoke_id
    ptransfer.o(.text) refers to user_data.o(.bss) for inputs
    ptransfer.o(.text) refers to modbus.o(.bss) for modbus
    user_data.o(.text) refers to rt_memclr_w.o(.text) for __aeabi_memclr4
    user_data.o(.text) refers to aeabi_memset.o(.text) for __aeabi_memset
    user_data.o(.text) refers to user_data.o(.bss) for info
    user_data.o(.text) refers to user_data.o(.data) for time_since_1970
    user_data.o(.text) refers to bo.o(.bss) for BO_Present_Value
    rs485.o(.text) refers to fifo.o(.text) for FIFO_Init
    rs485.o(.text) refers to bacnettimer.o(.text) for Timer_Silence
    rs485.o(.text) refers to rt_memcpy_v6.o(.text) for __aeabi_memcpy
    rs485.o(.text) refers to modbus.o(.text) for USART_SendDataString
    rs485.o(.text) refers to modbus.o(.bss) for USART_RX_BUF
    rs485.o(.text) refers to rs485.o(.bss) for Receive_Buffer0
    decode.o(.text) refers to strchr.o(.text) for strchr
    decode.o(.text) refers to point.o(.text) for get_point_value
    decode.o(.text) refers to decode.o(.data) for count
    decode.o(.text) refers to user_data.o(.data) for index_stack
    decode.o(.text) refers to user_data.o(.bss) for inputs
    vmalloc.o(.text) refers to vmalloc.o(.constdata) for memtblsize
    vmalloc.o(.text) refers to vmalloc.o(.data) for mallco_dev
    vmalloc.o(.data) refers to vmalloc.o(.text) for mem_init
    vmalloc.o(.data) refers to vmalloc.o(.bss) for mem1base
    vmalloc.o(.data) refers to vmalloc.o(.ARM.__AT_0x68000000) for mem2base
    vmalloc.o(.data) refers to vmalloc.o(.ARM.__AT_0x68032000) for mem2mapbase
    point.o(.text) refers to strlen.o(.text) for strlen
    point.o(.text) refers to user_data.o(.bss) for Setting_Info
    point.o(.text) refers to user_data.o(.data) for table_bank
    use_no_semi_2.o(.text) refers (Special) to use_no_semi.o(.text) for __use_no_semihosting_swi
    tolower.o(.text) refers to rt_ctype_table.o(.text) for __rt_ctype_table
    __2printf.o(.text) refers to _printf_char_file.o(.text) for _printf_char_file
    __2printf.o(.text) refers to usart.o(.data) for __stdout
    __2sprintf.o(.text) refers to _printf_char_common.o(.text) for _printf_char_common
    __2sprintf.o(.text) refers to _sputc.o(.text) for _sputc
    __2snprintf.o(.text) refers to _printf_char_common.o(.text) for _printf_char_common
    __2snprintf.o(.text) refers to _sputc.o(.text) for _sputc
    __2snprintf.o(.text) refers to _snputc.o(.text) for _snputc
    noretval__2printf.o(.text) refers to _printf_char_file.o(.text) for _printf_char_file
    noretval__2printf.o(.text) refers to usart.o(.data) for __stdout
    noretval__2sprintf.o(.text) refers to _printf_char_common.o(.text) for _printf_char_common
    noretval__2sprintf.o(.text) refers to _sputc.o(.text) for _sputc
    noretval__2snprintf.o(.text) refers to _printf_char_common.o(.text) for _printf_char_common
    noretval__2snprintf.o(.text) refers to _sputc.o(.text) for _sputc
    noretval__2snprintf.o(.text) refers to _snputc.o(.text) for _snputc
    __printf.o(.text) refers to _printf_percent.o(.ARM.Collect$$_printf_percent$$00000000) for _printf_percent
    _printf_str.o(.text) refers (Special) to _printf_char.o(.text) for _printf_cs_common
    _printf_str.o(.text) refers (Weak) to _printf_pad.o(.text) for _printf_pre_padding
    _printf_str.o(.text) refers (Weak) to _printf_pad.o(.text) for _printf_post_padding
    _printf_dec.o(.text) refers to _printf_intcommon.o(.text) for _printf_int_common
    _printf_hex_ll.o(.text) refers to _printf_intcommon.o(.text) for _printf_int_common
    _printf_hex_ll.o(.text) refers to _printf_hex_ll.o(.constdata) for .constdata
    _printf_hex_int.o(.text) refers to _printf_intcommon.o(.text) for _printf_int_common
    _printf_hex_int.o(.text) refers to _printf_hex_int.o(.constdata) for .constdata
    _printf_hex_int_ll.o(.text) refers to _printf_intcommon.o(.text) for _printf_int_common
    _printf_hex_int_ll.o(.text) refers to _printf_hex_int_ll.o(.constdata) for .constdata
    _printf_hex_ptr.o(.text) refers to _printf_intcommon.o(.text) for _printf_int_common
    _printf_hex_ptr.o(.text) refers to _printf_hex_ptr.o(.constdata) for .constdata
    _printf_hex_int_ptr.o(.text) refers to _printf_intcommon.o(.text) for _printf_int_common
    _printf_hex_int_ptr.o(.text) refers to _printf_hex_int_ptr.o(.constdata) for .constdata
    _printf_hex_ll_ptr.o(.text) refers to _printf_intcommon.o(.text) for _printf_int_common
    _printf_hex_ll_ptr.o(.text) refers to _printf_hex_ll_ptr.o(.constdata) for .constdata
    _printf_hex_int_ll_ptr.o(.text) refers to _printf_intcommon.o(.text) for _printf_int_common
    _printf_hex_int_ll_ptr.o(.text) refers to _printf_hex_int_ll_ptr.o(.constdata) for .constdata
    __printf_flags.o(.text) refers to _printf_percent.o(.ARM.Collect$$_printf_percent$$00000000) for _printf_percent
    __printf_flags.o(.text) refers to __printf_flags.o(.constdata) for .constdata
    __printf_ss.o(.text) refers to _printf_percent.o(.ARM.Collect$$_printf_percent$$00000000) for _printf_percent
    __printf_flags_ss.o(.text) refers to _printf_percent.o(.ARM.Collect$$_printf_percent$$00000000) for _printf_percent
    __printf_flags_ss.o(.text) refers to __printf_flags_ss.o(.constdata) for .constdata
    __printf_wp.o(.text) refers to __printf_wp.o(i._is_digit) for _is_digit
    __printf_wp.o(.text) refers to _printf_percent.o(.ARM.Collect$$_printf_percent$$00000000) for _printf_percent
    __printf_flags_wp.o(.text) refers to __printf_wp.o(i._is_digit) for _is_digit
    __printf_flags_wp.o(.text) refers to _printf_percent.o(.ARM.Collect$$_printf_percent$$00000000) for _printf_percent
    __printf_flags_wp.o(.text) refers to __printf_flags_wp.o(.constdata) for .constdata
    __printf_ss_wp.o(.text) refers to __printf_wp.o(i._is_digit) for _is_digit
    __printf_ss_wp.o(.text) refers to _printf_percent.o(.ARM.Collect$$_printf_percent$$00000000) for _printf_percent
    __printf_flags_ss_wp.o(.text) refers to __printf_wp.o(i._is_digit) for _is_digit
    __printf_flags_ss_wp.o(.text) refers to _printf_percent.o(.ARM.Collect$$_printf_percent$$00000000) for _printf_percent
    __printf_flags_ss_wp.o(.text) refers to __printf_flags_ss_wp.o(.constdata) for .constdata
    _printf_c.o(.ARM.Collect$$_printf_percent$$00000013) refers (Weak) to _printf_char.o(.text) for _printf_char
    _printf_s.o(.ARM.Collect$$_printf_percent$$00000014) refers (Weak) to _printf_char.o(.text) for _printf_string
    _printf_x.o(.ARM.Collect$$_printf_percent$$0000000C) refers (Weak) to _printf_hex_int.o(.text) for _printf_int_hex
    _printf_d.o(.ARM.Collect$$_printf_percent$$00000009) refers (Weak) to _printf_dec.o(.text) for _printf_int_dec
    _printf_u.o(.ARM.Collect$$_printf_percent$$0000000A) refers (Weak) to _printf_dec.o(.text) for _printf_int_dec
    _printf_f.o(.ARM.Collect$$_printf_percent$$00000003) refers (Weak) to printf1.o(x$fpl$printf1) for _printf_fp_dec
    _printf_percent.o(.ARM.Collect$$_printf_percent$$00000000) refers (Special) to _printf_percent_end.o(.ARM.Collect$$_printf_percent$$00000017) for _printf_percent_end
    __0sscanf.o(.text) refers to scanf_char.o(.text) for __vfscanf_char
    __0sscanf.o(.text) refers to _sgetc.o(.text) for _sgetc
    _scanf_int.o(.text) refers to _chval.o(.text) for _chval
    strtol.o(.text) refers to rt_ctype_table.o(.text) for __rt_ctype_table
    strtol.o(.text) refers to _strtoul.o(.text) for _strtoul
    strtol.o(.text) refers to rt_errno_addr_intlibspace.o(.text) for __aeabi_errno_addr
    strtoul.o(.text) refers to rt_errno_addr_intlibspace.o(.text) for __aeabi_errno_addr
    strtoul.o(.text) refers to rt_ctype_table.o(.text) for __rt_ctype_table
    strtoul.o(.text) refers to _strtoul.o(.text) for _strtoul
    rand.o(.emb_text) refers (Special) to libinit2.o(.ARM.Collect$$libinit$$0000000B) for __rt_lib_init_rand_2
    rand.o(.emb_text) refers to rand.o(.text) for _rand_init
    rand.o(.emb_text) refers to rand.o(.bss) for _random_number_data
    rand.o(.text) refers (Special) to libinit2.o(.ARM.Collect$$libinit$$0000000B) for __rt_lib_init_rand_2
    rand.o(.text) refers to rand.o(.bss) for .bss
    rand.o(.bss) refers (Special) to libinit2.o(.ARM.Collect$$libinit$$0000000B) for __rt_lib_init_rand_2
    rt_memcpy_v6.o(.text) refers to rt_memcpy_w.o(.text) for __aeabi_memcpy4
    aeabi_memset.o(.text) refers to rt_memclr.o(.text) for _memset
    rt_memclr.o(.text) refers to rt_memclr_w.o(.text) for _memset_w
    strncpy.o(.text) refers to rt_memclr.o(.text) for __aeabi_memclr
    __main.o(!!!main) refers to rtentry.o(.ARM.Collect$$rtentry$$00000000) for __rt_entry
    d2f.o(x$fpl$d2f) refers (Special) to usenofp.o(x$fpl$usenofp) for __I$use$fp
    d2f.o(x$fpl$d2f) refers to fretinf.o(x$fpl$fretinf) for __fpl_fretinf
    d2f.o(x$fpl$d2f) refers to dnaninf.o(x$fpl$dnaninf) for __fpl_dnaninf
    ddiv.o(x$fpl$drdiv) refers (Special) to usenofp.o(x$fpl$usenofp) for __I$use$fp
    ddiv.o(x$fpl$drdiv) refers to ddiv.o(x$fpl$ddiv) for ddiv_entry
    ddiv.o(x$fpl$ddiv) refers (Special) to usenofp.o(x$fpl$usenofp) for __I$use$fp
    ddiv.o(x$fpl$ddiv) refers to dretinf.o(x$fpl$dretinf) for __fpl_dretinf
    ddiv.o(x$fpl$ddiv) refers to dnaninf.o(x$fpl$dnaninf) for __fpl_dnaninf
    dflt_clz.o(x$fpl$dfltu) refers (Special) to usenofp.o(x$fpl$usenofp) for __I$use$fp
    dflt_clz.o(x$fpl$dflt) refers (Special) to usenofp.o(x$fpl$usenofp) for __I$use$fp
    dflt_clz.o(x$fpl$dfltn) refers (Special) to usenofp.o(x$fpl$usenofp) for __I$use$fp
    f2d.o(x$fpl$f2d) refers (Special) to usenofp.o(x$fpl$usenofp) for __I$use$fp
    f2d.o(x$fpl$f2d) refers to fnaninf.o(x$fpl$fnaninf) for __fpl_fnaninf
    f2d.o(x$fpl$f2d) refers to dretinf.o(x$fpl$dretinf) for __fpl_dretinf
    fdiv.o(x$fpl$frdiv) refers (Special) to usenofp.o(x$fpl$usenofp) for __I$use$fp
    fdiv.o(x$fpl$frdiv) refers to fdiv.o(x$fpl$fdiv) for _fdiv1
    fdiv.o(x$fpl$fdiv) refers (Special) to usenofp.o(x$fpl$usenofp) for __I$use$fp
    fdiv.o(x$fpl$fdiv) refers to fretinf.o(x$fpl$fretinf) for __fpl_fretinf
    fdiv.o(x$fpl$fdiv) refers to fnaninf.o(x$fpl$fnaninf) for __fpl_fnaninf
    ffix.o(x$fpl$ffix) refers (Special) to usenofp.o(x$fpl$usenofp) for __I$use$fp
    ffix.o(x$fpl$ffix) refers to fnaninf.o(x$fpl$fnaninf) for __fpl_fnaninf
    ffix.o(x$fpl$ffixr) refers (Special) to usenofp.o(x$fpl$usenofp) for __I$use$fp
    ffix.o(x$fpl$ffixr) refers to fnaninf.o(x$fpl$fnaninf) for __fpl_fnaninf
    ffixu.o(x$fpl$ffixu) refers (Special) to usenofp.o(x$fpl$usenofp) for __I$use$fp
    ffixu.o(x$fpl$ffixu) refers to fnaninf.o(x$fpl$fnaninf) for __fpl_fnaninf
    ffixu.o(x$fpl$ffixur) refers (Special) to usenofp.o(x$fpl$usenofp) for __I$use$fp
    ffixu.o(x$fpl$ffixur) refers to fnaninf.o(x$fpl$fnaninf) for __fpl_fnaninf
    fflt_clz.o(x$fpl$ffltu) refers (Special) to usenofp.o(x$fpl$usenofp) for __I$use$fp
    fflt_clz.o(x$fpl$fflt) refers (Special) to usenofp.o(x$fpl$usenofp) for __I$use$fp
    fflt_clz.o(x$fpl$ffltn) refers (Special) to usenofp.o(x$fpl$usenofp) for __I$use$fp
    fleqf.o(x$fpl$fleqf) refers (Special) to usenofp.o(x$fpl$usenofp) for __I$use$fp
    fleqf.o(x$fpl$fleqf) refers to fnaninf.o(x$fpl$fnaninf) for __fpl_fnaninf
    fleqf.o(x$fpl$fleqf) refers to fcmpi.o(x$fpl$fcmpinf) for __fpl_fcmp_Inf
    fmul.o(x$fpl$fmul) refers (Special) to usenofp.o(x$fpl$usenofp) for __I$use$fp
    fmul.o(x$fpl$fmul) refers to fretinf.o(x$fpl$fretinf) for __fpl_fretinf
    fmul.o(x$fpl$fmul) refers to fnaninf.o(x$fpl$fnaninf) for __fpl_fnaninf
    frleqf.o(x$fpl$frleqf) refers (Special) to usenofp.o(x$fpl$usenofp) for __I$use$fp
    frleqf.o(x$fpl$frleqf) refers to fleqf.o(x$fpl$fleqf) for __fpl_fcmple_InfNaN
    printf1.o(x$fpl$printf1) refers to _printf_fp_dec.o(.text) for _printf_fp_dec_real
    strtod.o(i.__softfp_strtod) refers (Special) to usenofp.o(x$fpl$usenofp) for __I$use$fp
    strtod.o(i.__softfp_strtod) refers to strtod.o(.text) for __strtod_int
    strtod.o(i.strtod) refers (Special) to usenofp.o(x$fpl$usenofp) for __I$use$fp
    strtod.o(i.strtod) refers to strtod.o(.text) for __strtod_int
    rtentry.o(.ARM.Collect$$rtentry$$00000000) refers (Special) to rtentry2.o(.ARM.Collect$$rtentry$$0000000A) for __rt_entry_li
    rtentry.o(.ARM.Collect$$rtentry$$00000000) refers (Special) to rtentry2.o(.ARM.Collect$$rtentry$$0000000D) for __rt_entry_main
    rtentry.o(.ARM.Collect$$rtentry$$00000000) refers (Special) to rtentry2.o(.ARM.Collect$$rtentry$$0000000C) for __rt_entry_postli_1
    rtentry.o(.ARM.Collect$$rtentry$$00000000) refers (Special) to rtentry2.o(.ARM.Collect$$rtentry$$00000009) for __rt_entry_postsh_1
    rtentry.o(.ARM.Collect$$rtentry$$00000000) refers (Special) to rtentry2.o(.ARM.Collect$$rtentry$$00000002) for __rt_entry_presh_1
    rtentry.o(.ARM.Collect$$rtentry$$00000000) refers (Special) to rtentry4.o(.ARM.Collect$$rtentry$$00000004) for __rt_entry_sh
    rt_ctype_table.o(.text) refers to rt_locale_intlibspace.o(.text) for __rt_locale
    rt_ctype_table.o(.text) refers to lc_ctype_c.o(locale$$code) for _get_lc_ctype
    rt_errno_addr.o(.text) refers to rt_errno_addr.o(.bss) for __aeabi_errno_addr_data
    rt_errno_addr_intlibspace.o(.text) refers to libspace.o(.bss) for __libspace_start
    _printf_intcommon.o(.text) refers (Weak) to _printf_pad.o(.text) for _printf_pre_padding
    _printf_intcommon.o(.text) refers (Weak) to _printf_pad.o(.text) for _printf_pre_padding
    _printf_intcommon.o(.text) refers (Weak) to _printf_pad.o(.text) for _printf_post_padding
    _printf_fp_dec.o(.text) refers (Special) to usenofp.o(x$fpl$usenofp) for __I$use$fp
    _printf_fp_dec.o(.text) refers (Special) to lc_numeric_c.o(locale$$code) for _get_lc_numeric
    _printf_fp_dec.o(.text) refers to bigflt0.o(.text) for _btod_etento
    _printf_fp_dec.o(.text) refers to btod.o(CL$$btod_d2e) for _btod_d2e
    _printf_fp_dec.o(.text) refers to btod.o(CL$$btod_ediv) for _btod_ediv
    _printf_fp_dec.o(.text) refers to btod.o(CL$$btod_emul) for _btod_emul
    _printf_fp_dec.o(.text) refers to lludiv10.o(.text) for _ll_udiv10
    _printf_fp_dec.o(.text) refers to fpclassify.o(i.__ARM_fpclassify) for __ARM_fpclassify
    _printf_fp_dec.o(.text) refers to _printf_fp_infnan.o(.text) for _printf_fp_infnan
    _printf_fp_dec.o(.text) refers (Weak) to _printf_pad.o(.text) for _printf_pre_padding
    _printf_fp_dec.o(.text) refers (Weak) to _printf_pad.o(.text) for _printf_pre_padding
    _printf_fp_dec.o(.text) refers to rt_locale_intlibspace.o(.text) for __rt_locale
    _printf_fp_dec.o(.text) refers (Weak) to _printf_pad.o(.text) for _printf_post_padding
    _printf_char_common.o(.text) refers to __printf_ss_wp.o(.text) for __printf
    _printf_char.o(.text) refers (Weak) to _printf_str.o(.text) for _printf_str
    _printf_char_file.o(.text) refers to _printf_char_common.o(.text) for _printf_char_common
    _printf_char_file.o(.text) refers to ferror.o(.text) for ferror
    _printf_char_file.o(.text) refers to usart.o(.text) for fputc
    scanf_char.o(.text) refers to _scanf.o(.text) for __vfscanf
    scanf_char.o(.text) refers to isspace.o(.text) for isspace
    _strtoul.o(.text) refers to _chval.o(.text) for _chval
    _strtoul.o(.text) refers to rt_errno_addr_intlibspace.o(.text) for __aeabi_errno_addr
    strtod.o(.text) refers (Special) to lc_numeric_c.o(locale$$code) for _get_lc_numeric
    strtod.o(.text) refers to scanf1.o(x$fpl$scanf1) for _scanf_real
    strtod.o(.text) refers to _sgetc.o(.text) for _sgetc
    strtod.o(.text) refers to isspace.o(.text) for isspace
    libinit2.o(.ARM.Collect$$libinit$$0000000B) refers (Weak) to rand.o(.text) for _rand_init
    libinit2.o(.ARM.Collect$$libinit$$0000000D) refers (Weak) to rt_locale_intlibspace.o(.text) for __rt_locale
    libinit2.o(.ARM.Collect$$libinit$$0000000E) refers to libinit2.o(.ARM.Collect$$libinit$$0000000D) for .ARM.Collect$$libinit$$0000000D
    libinit2.o(.ARM.Collect$$libinit$$00000010) refers to libinit2.o(.ARM.Collect$$libinit$$0000000D) for .ARM.Collect$$libinit$$0000000D
    libinit2.o(.ARM.Collect$$libinit$$00000010) refers (Weak) to lc_ctype_c.o(locale$$code) for _get_lc_ctype
    libinit2.o(.ARM.Collect$$libinit$$00000012) refers to libinit2.o(.ARM.Collect$$libinit$$0000000D) for .ARM.Collect$$libinit$$0000000D
    libinit2.o(.ARM.Collect$$libinit$$00000014) refers to libinit2.o(.ARM.Collect$$libinit$$0000000D) for .ARM.Collect$$libinit$$0000000D
    libinit2.o(.ARM.Collect$$libinit$$00000014) refers (Weak) to lc_numeric_c.o(locale$$code) for _get_lc_numeric
    libinit2.o(.ARM.Collect$$libinit$$00000016) refers to libinit2.o(.ARM.Collect$$libinit$$0000000D) for .ARM.Collect$$libinit$$0000000D
    libinit2.o(.ARM.Collect$$libinit$$00000024) refers to argv_veneer.o(.emb_text) for __ARM_argv_veneer
    libinit2.o(.ARM.Collect$$libinit$$00000025) refers to argv_veneer.o(.emb_text) for __ARM_argv_veneer
    dnaninf.o(x$fpl$dnaninf) refers (Special) to usenofp.o(x$fpl$usenofp) for __I$use$fp
    dretinf.o(x$fpl$dretinf) refers (Special) to usenofp.o(x$fpl$usenofp) for __I$use$fp
    fcmpi.o(x$fpl$fcmpinf) refers (Special) to usenofp.o(x$fpl$usenofp) for __I$use$fp
    fnaninf.o(x$fpl$fnaninf) refers (Special) to usenofp.o(x$fpl$usenofp) for __I$use$fp
    fretinf.o(x$fpl$fretinf) refers (Special) to usenofp.o(x$fpl$usenofp) for __I$use$fp
    libspace.o(.text) refers to libspace.o(.bss) for __libspace_start
    rtentry2.o(.ARM.Collect$$rtentry$$00000008) refers to boardinit2.o(.text) for _platform_post_stackheap_init
    rtentry2.o(.ARM.Collect$$rtentry$$0000000A) refers to libinit.o(.ARM.Collect$$libinit$$00000000) for __rt_lib_init
    rtentry2.o(.ARM.Collect$$rtentry$$0000000B) refers to boardinit3.o(.text) for _platform_post_lib_init
    rtentry2.o(.ARM.Collect$$rtentry$$0000000D) refers to main.o(.text) for main
    rtentry2.o(.ARM.Collect$$rtentry$$0000000D) refers to exit.o(.text) for exit
    rtentry2.o(.ARM.exidx) refers to rtentry2.o(.ARM.Collect$$rtentry$$00000001) for .ARM.Collect$$rtentry$$00000001
    rtentry2.o(.ARM.exidx) refers to rtentry2.o(.ARM.Collect$$rtentry$$00000008) for .ARM.Collect$$rtentry$$00000008
    rtentry2.o(.ARM.exidx) refers to rtentry2.o(.ARM.Collect$$rtentry$$0000000A) for .ARM.Collect$$rtentry$$0000000A
    rtentry2.o(.ARM.exidx) refers to rtentry2.o(.ARM.Collect$$rtentry$$0000000B) for .ARM.Collect$$rtentry$$0000000B
    rtentry2.o(.ARM.exidx) refers to rtentry2.o(.ARM.Collect$$rtentry$$0000000D) for .ARM.Collect$$rtentry$$0000000D
    rtentry4.o(.ARM.Collect$$rtentry$$00000004) refers to sys_stackheap_outer.o(.text) for __user_setup_stackheap
    rtentry4.o(.ARM.exidx) refers to rtentry4.o(.ARM.Collect$$rtentry$$00000004) for .ARM.Collect$$rtentry$$00000004
    rt_locale.o(.text) refers to rt_locale.o(.bss) for __rt_locale_data
    rt_locale_intlibspace.o(.text) refers to libspace.o(.bss) for __libspace_start
    isspace.o(.text) refers to rt_ctype_table.o(.text) for __rt_ctype_table
    _printf_fp_infnan.o(.text) refers (Weak) to _printf_pad.o(.text) for _printf_pre_padding
    _printf_fp_infnan.o(.text) refers (Weak) to _printf_pad.o(.text) for _printf_post_padding
    _scanf.o(.text) refers (Weak) to scanf1.o(x$fpl$scanf1) for _scanf_real
    _scanf.o(.text) refers (Weak) to _scanf_int.o(.text) for _scanf_int
    bigflt0.o(.text) refers (Special) to usenofp.o(x$fpl$usenofp) for __I$use$fp
    bigflt0.o(.text) refers to btod.o(CL$$btod_emul) for _btod_emul
    bigflt0.o(.text) refers to btod.o(CL$$btod_ediv) for _btod_ediv
    bigflt0.o(.text) refers to bigflt0.o(.constdata) for .constdata
    bigflt0.o(.constdata) refers (Special) to usenofp.o(x$fpl$usenofp) for __I$use$fp
    btod.o(CL$$btod_d2e) refers (Special) to usenofp.o(x$fpl$usenofp) for __I$use$fp
    btod.o(CL$$btod_d2e) refers to btod.o(CL$$btod_d2e_norm_op1) for _d2e_norm_op1
    btod.o(CL$$btod_d2e_norm_op1) refers (Special) to usenofp.o(x$fpl$usenofp) for __I$use$fp
    btod.o(CL$$btod_d2e_norm_op1) refers to btod.o(CL$$btod_d2e_denorm_low) for _d2e_denorm_low
    btod.o(CL$$btod_d2e_denorm_low) refers (Special) to usenofp.o(x$fpl$usenofp) for __I$use$fp
    btod.o(CL$$btod_emul) refers (Special) to usenofp.o(x$fpl$usenofp) for __I$use$fp
    btod.o(CL$$btod_emul) refers to btod.o(CL$$btod_mult_common) for __btod_mult_common
    btod.o(CL$$btod_emul) refers to btod.o(CL$$btod_e2e) for _e2e
    btod.o(CL$$btod_ediv) refers (Special) to usenofp.o(x$fpl$usenofp) for __I$use$fp
    btod.o(CL$$btod_ediv) refers to btod.o(CL$$btod_div_common) for __btod_div_common
    btod.o(CL$$btod_ediv) refers to btod.o(CL$$btod_e2e) for _e2e
    btod.o(CL$$btod_emuld) refers (Special) to usenofp.o(x$fpl$usenofp) for __I$use$fp
    btod.o(CL$$btod_emuld) refers to btod.o(CL$$btod_mult_common) for __btod_mult_common
    btod.o(CL$$btod_emuld) refers to btod.o(CL$$btod_e2d) for _e2d
    btod.o(CL$$btod_edivd) refers (Special) to usenofp.o(x$fpl$usenofp) for __I$use$fp
    btod.o(CL$$btod_edivd) refers to btod.o(CL$$btod_div_common) for __btod_div_common
    btod.o(CL$$btod_edivd) refers to btod.o(CL$$btod_e2d) for _e2d
    btod.o(CL$$btod_e2e) refers (Special) to usenofp.o(x$fpl$usenofp) for __I$use$fp
    btod.o(CL$$btod_e2d) refers (Special) to usenofp.o(x$fpl$usenofp) for __I$use$fp
    btod.o(CL$$btod_e2d) refers to btod.o(CL$$btod_e2e) for _e2e
    btod.o(CL$$btod_mult_common) refers (Special) to usenofp.o(x$fpl$usenofp) for __I$use$fp
    btod.o(CL$$btod_div_common) refers (Special) to usenofp.o(x$fpl$usenofp) for __I$use$fp
    lc_ctype_c.o(locale$$data) refers (Special) to libinit2.o(.ARM.Collect$$libinit$$00000010) for __rt_lib_init_lc_ctype_2
    lc_ctype_c.o(locale$$code) refers (Special) to libinit2.o(.ARM.Collect$$libinit$$00000010) for __rt_lib_init_lc_ctype_2
    lc_ctype_c.o(locale$$code) refers to strcmpv7m.o(.text) for strcmp
    lc_ctype_c.o(locale$$code) refers to lc_ctype_c.o(locale$$data) for __lcctype_c_name
    lc_numeric_c.o(locale$$data) refers (Special) to libinit2.o(.ARM.Collect$$libinit$$00000014) for __rt_lib_init_lc_numeric_2
    lc_numeric_c.o(locale$$code) refers (Special) to libinit2.o(.ARM.Collect$$libinit$$00000014) for __rt_lib_init_lc_numeric_2
    lc_numeric_c.o(locale$$code) refers to strcmpv7m.o(.text) for strcmp
    lc_numeric_c.o(locale$$code) refers to lc_numeric_c.o(locale$$data) for __lcnum_c_name
    argv_veneer.o(.emb_text) refers to no_argv.o(.text) for __ARM_get_argv
    istatus.o(x$fpl$ieeestatus) refers (Special) to usenofp.o(x$fpl$usenofp) for __I$use$fp
    scanf1.o(x$fpl$scanf1) refers to scanf_fp.o(.text) for _scanf_really_real
    fpclassify.o(i.__ARM_fpclassify) refers (Special) to usenofp.o(x$fpl$usenofp) for __I$use$fp
    sys_stackheap_outer.o(.text) refers to libspace.o(.text) for __user_perproc_libspace
    sys_stackheap_outer.o(.text) refers to startup_stm32f10x_hd.o(.text) for __user_initial_stackheap
    scanf_fp.o(.text) refers (Special) to usenofp.o(x$fpl$usenofp) for __I$use$fp
    scanf_fp.o(.text) refers (Special) to lc_numeric_c.o(locale$$code) for _get_lc_numeric
    scanf_fp.o(.text) refers to rt_errno_addr_intlibspace.o(.text) for __aeabi_errno_addr
    scanf_fp.o(.text) refers to bigflt0.o(.text) for _btod_etento
    scanf_fp.o(.text) refers to btod.o(CL$$btod_emuld) for _btod_emuld
    scanf_fp.o(.text) refers to btod.o(CL$$btod_edivd) for _btod_edivd
    scanf_fp.o(.text) refers to rt_locale_intlibspace.o(.text) for __rt_locale
    scanf_fp.o(.text) refers to scanf2.o(x$fpl$scanf2) for _scanf_infnan
    scanf_fp.o(.text) refers to __printf_wp.o(i._is_digit) for _is_digit
    scanf_fp.o(.text) refers to narrow.o(i.__mathlib_narrow) for __mathlib_narrow
    scanf_fp.o(.text) refers to fpconst.o(c$$dinf) for __huge_val
    exit.o(.text) refers to rtexit.o(.ARM.Collect$$rtexit$$00000000) for __rt_exit
    _get_argv_nomalloc.o(.text) refers (Special) to hrguard.o(.text) for __heap_region$guard
    _get_argv_nomalloc.o(.text) refers to defsig_rtmem_outer.o(.text) for __rt_SIGRTMEM
    _get_argv_nomalloc.o(.text) refers to sys_command.o(.text) for _sys_command_string
    libinit.o(.ARM.Collect$$libinit$$00000000) refers (Special) to libinit2.o(.ARM.Collect$$libinit$$0000002C) for __rt_lib_init_alloca_1
    libinit.o(.ARM.Collect$$libinit$$00000000) refers (Special) to libinit2.o(.ARM.Collect$$libinit$$0000002A) for __rt_lib_init_argv_1
    libinit.o(.ARM.Collect$$libinit$$00000000) refers (Special) to libinit2.o(.ARM.Collect$$libinit$$00000019) for __rt_lib_init_atexit_1
    libinit.o(.ARM.Collect$$libinit$$00000000) refers (Special) to libinit2.o(.ARM.Collect$$libinit$$0000001F) for __rt_lib_init_clock_1
    libinit.o(.ARM.Collect$$libinit$$00000000) refers (Special) to libinit2.o(.ARM.Collect$$libinit$$00000030) for __rt_lib_init_cpp_1
    libinit.o(.ARM.Collect$$libinit$$00000000) refers (Special) to libinit2.o(.ARM.Collect$$libinit$$0000002E) for __rt_lib_init_exceptions_1
    libinit.o(.ARM.Collect$$libinit$$00000000) refers (Special) to libinit2.o(.ARM.Collect$$libinit$$00000002) for __rt_lib_init_fp_1
    libinit.o(.ARM.Collect$$libinit$$00000000) refers (Special) to libinit2.o(.ARM.Collect$$libinit$$0000001D) for __rt_lib_init_fp_trap_1
    libinit.o(.ARM.Collect$$libinit$$00000000) refers (Special) to libinit2.o(.ARM.Collect$$libinit$$00000021) for __rt_lib_init_getenv_1
    libinit.o(.ARM.Collect$$libinit$$00000000) refers (Special) to libinit2.o(.ARM.Collect$$libinit$$00000008) for __rt_lib_init_heap_1
    libinit.o(.ARM.Collect$$libinit$$00000000) refers (Special) to libinit2.o(.ARM.Collect$$libinit$$0000000F) for __rt_lib_init_lc_collate_1
    libinit.o(.ARM.Collect$$libinit$$00000000) refers (Special) to libinit2.o(.ARM.Collect$$libinit$$00000011) for __rt_lib_init_lc_ctype_1
    libinit.o(.ARM.Collect$$libinit$$00000000) refers (Special) to libinit2.o(.ARM.Collect$$libinit$$00000013) for __rt_lib_init_lc_monetary_1
    libinit.o(.ARM.Collect$$libinit$$00000000) refers (Special) to libinit2.o(.ARM.Collect$$libinit$$00000015) for __rt_lib_init_lc_numeric_1
    libinit.o(.ARM.Collect$$libinit$$00000000) refers (Special) to libinit2.o(.ARM.Collect$$libinit$$00000017) for __rt_lib_init_lc_time_1
    libinit.o(.ARM.Collect$$libinit$$00000000) refers (Special) to libinit2.o(.ARM.Collect$$libinit$$0000000C) for __rt_lib_init_rand_1
    libinit.o(.ARM.Collect$$libinit$$00000000) refers (Special) to libinit2.o(.ARM.Collect$$libinit$$00000031) for __rt_lib_init_return
    libinit.o(.ARM.Collect$$libinit$$00000000) refers (Special) to libinit2.o(.ARM.Collect$$libinit$$0000001B) for __rt_lib_init_signal_1
    libinit.o(.ARM.Collect$$libinit$$00000000) refers (Special) to libinit2.o(.ARM.Collect$$libinit$$00000023) for __rt_lib_init_stdio_1
    libinit.o(.ARM.Collect$$libinit$$00000000) refers (Special) to libinit2.o(.ARM.Collect$$libinit$$0000000A) for __rt_lib_init_user_alloc_1
    sys_command.o(.text) refers (Special) to use_no_semi.o(.text) for __I$use$semihosting
    sys_command.o(.text) refers (Special) to indicate_semi.o(.text) for __semihosting_library_function
    rtexit.o(.ARM.Collect$$rtexit$$00000000) refers (Special) to rtexit2.o(.ARM.Collect$$rtexit$$00000004) for __rt_exit_exit
    rtexit.o(.ARM.Collect$$rtexit$$00000000) refers (Special) to rtexit2.o(.ARM.Collect$$rtexit$$00000003) for __rt_exit_ls
    rtexit.o(.ARM.Collect$$rtexit$$00000000) refers (Special) to rtexit2.o(.ARM.Collect$$rtexit$$00000002) for __rt_exit_prels_1
    rtexit.o(.ARM.exidx) refers (Special) to rtexit2.o(.ARM.Collect$$rtexit$$00000004) for __rt_exit_exit
    rtexit.o(.ARM.exidx) refers (Special) to rtexit2.o(.ARM.Collect$$rtexit$$00000003) for __rt_exit_ls
    rtexit.o(.ARM.exidx) refers (Special) to rtexit2.o(.ARM.Collect$$rtexit$$00000002) for __rt_exit_prels_1
    rtexit.o(.ARM.exidx) refers to rtexit.o(.ARM.Collect$$rtexit$$00000000) for .ARM.Collect$$rtexit$$00000000
    defsig_rtmem_outer.o(.text) refers to defsig_rtmem_inner.o(.text) for __rt_SIGRTMEM_inner
    defsig_rtmem_outer.o(.text) refers to defsig_exit.o(.text) for __sig_exit
    defsig_rtmem_formal.o(.text) refers to rt_raise.o(.text) for __rt_raise
    fpconst.o(c$$dinf) refers (Special) to usenofp.o(x$fpl$usenofp) for __I$use$fp
    fpconst.o(c$$dnan) refers (Special) to usenofp.o(x$fpl$usenofp) for __I$use$fp
    fpconst.o(c$$finf) refers (Special) to usenofp.o(x$fpl$usenofp) for __I$use$fp
    scanf2.o(x$fpl$scanf2) refers to scanf_hexfp.o(.text) for _scanf_really_hex_real
    scanf2.o(x$fpl$scanf2) refers to scanf_infnan.o(.text) for _scanf_really_infnan
    scanf2b.o(x$fpl$scanf2) refers to scanf_hexfp.o(.text) for _scanf_really_hex_real
    scanf2b.o(x$fpl$scanf2) refers to scanf_infnan.o(.text) for _scanf_really_infnan
    narrow.o(i.__mathlib_narrow) refers (Special) to usenofp.o(x$fpl$usenofp) for __I$use$fp
    narrow.o(i.__mathlib_narrow) refers to narrow.o(i.__mathlib_tofloat) for __mathlib_tofloat
    narrow.o(i.__mathlib_tofloat) refers (Special) to usenofp.o(x$fpl$usenofp) for __I$use$fp
    narrow.o(i.__mathlib_tofloat) refers to frexp.o(i.frexp) for frexp
    narrow.o(i.__mathlib_tofloat) refers to deqf.o(x$fpl$deqf) for __aeabi_cdcmpeq
    narrow.o(i.__mathlib_tofloat) refers to d2f.o(x$fpl$d2f) for __aeabi_d2f
    narrow.o(i.__mathlib_tofloat) refers to _rserrno.o(.text) for __set_errno
    narrow.o(i.__mathlib_tofloat) refers to drleqf.o(x$fpl$drleqf) for __aeabi_cdrcmple
    narrow.o(i.__softfp___mathlib_tofloat) refers (Special) to usenofp.o(x$fpl$usenofp) for __I$use$fp
    narrow.o(i.__softfp___mathlib_tofloat) refers to narrow.o(i.__mathlib_tofloat) for __mathlib_tofloat
    rtexit2.o(.ARM.Collect$$rtexit$$00000003) refers to libshutdown.o(.ARM.Collect$$libshutdown$$00000000) for __rt_lib_shutdown
    rtexit2.o(.ARM.Collect$$rtexit$$00000004) refers to usart.o(.text) for _sys_exit
    rtexit2.o(.ARM.exidx) refers to rtexit2.o(.ARM.Collect$$rtexit$$00000001) for .ARM.Collect$$rtexit$$00000001
    rtexit2.o(.ARM.exidx) refers to rtexit2.o(.ARM.Collect$$rtexit$$00000003) for .ARM.Collect$$rtexit$$00000003
    rtexit2.o(.ARM.exidx) refers to rtexit2.o(.ARM.Collect$$rtexit$$00000004) for .ARM.Collect$$rtexit$$00000004
    rt_raise.o(.text) refers to __raise.o(.text) for __raise
    rt_raise.o(.text) refers to usart.o(.text) for _sys_exit
    _rserrno.o(.text) refers to rt_errno_addr_intlibspace.o(.text) for __aeabi_errno_addr
    scanf_hexfp.o(.text) refers to _chval.o(.text) for _chval
    scanf_hexfp.o(.text) refers to llshl.o(.text) for __aeabi_llsl
    scanf_hexfp.o(.text) refers to ldexp.o(i.__support_ldexp) for __support_ldexp
    scanf_hexfp.o(.text) refers to narrow.o(i.__mathlib_narrow) for __mathlib_narrow
    defsig_exit.o(.text) refers to usart.o(.text) for _sys_exit
    defsig_rtmem_inner.o(.text) refers to defsig_general.o(.text) for __default_signal_display
    deqf.o(x$fpl$deqf) refers (Special) to usenofp.o(x$fpl$usenofp) for __I$use$fp
    deqf.o(x$fpl$deqf) refers to dnaninf.o(x$fpl$dnaninf) for __fpl_dnaninf
    deqf.o(x$fpl$deqf) refers to dcmpi.o(x$fpl$dcmpinf) for __fpl_dcmp_Inf
    drleqf.o(x$fpl$drleqf) refers (Special) to usenofp.o(x$fpl$usenofp) for __I$use$fp
    drleqf.o(x$fpl$drleqf) refers to dleqf.o(x$fpl$dleqf) for __fpl_dcmple_InfNaN
    frexp.o(i.__softfp_frexp) refers (Special) to usenofp.o(x$fpl$usenofp) for __I$use$fp
    frexp.o(i.__softfp_frexp) refers to scalbn.o(x$fpl$scalbn) for __ARM_scalbn
    frexp.o(i.frexp) refers (Special) to usenofp.o(x$fpl$usenofp) for __I$use$fp
    frexp.o(i.frexp) refers to scalbn.o(x$fpl$scalbn) for __ARM_scalbn
    __raise.o(.text) refers to defsig.o(CL$$defsig) for __default_signal_handler
    defsig_general.o(.text) refers to sys_wrch.o(.text) for _ttywrch
    libshutdown.o(.ARM.Collect$$libshutdown$$00000000) refers (Special) to libshutdown2.o(.ARM.Collect$$libshutdown$$00000006) for __rt_lib_shutdown_fp_trap_1
    libshutdown.o(.ARM.Collect$$libshutdown$$00000000) refers (Special) to libshutdown2.o(.ARM.Collect$$libshutdown$$0000000E) for __rt_lib_shutdown_heap_1
    libshutdown.o(.ARM.Collect$$libshutdown$$00000000) refers (Special) to libshutdown2.o(.ARM.Collect$$libshutdown$$0000000F) for __rt_lib_shutdown_return
    libshutdown.o(.ARM.Collect$$libshutdown$$00000000) refers (Special) to libshutdown2.o(.ARM.Collect$$libshutdown$$00000009) for __rt_lib_shutdown_signal_1
    libshutdown.o(.ARM.Collect$$libshutdown$$00000000) refers (Special) to libshutdown2.o(.ARM.Collect$$libshutdown$$00000003) for __rt_lib_shutdown_stdio_1
    libshutdown.o(.ARM.Collect$$libshutdown$$00000000) refers (Special) to libshutdown2.o(.ARM.Collect$$libshutdown$$0000000B) for __rt_lib_shutdown_user_alloc_1
    dcmpi.o(x$fpl$dcmpinf) refers (Special) to usenofp.o(x$fpl$usenofp) for __I$use$fp
    dleqf.o(x$fpl$dleqf) refers (Special) to usenofp.o(x$fpl$usenofp) for __I$use$fp
    dleqf.o(x$fpl$dleqf) refers to dnaninf.o(x$fpl$dnaninf) for __fpl_dnaninf
    dleqf.o(x$fpl$dleqf) refers to dcmpi.o(x$fpl$dcmpinf) for __fpl_dcmp_Inf
    scalbn.o(x$fpl$scalbn) refers (Special) to usenofp.o(x$fpl$usenofp) for __I$use$fp
    scalbn.o(x$fpl$scalbn) refers to dcheck1.o(x$fpl$dcheck1) for __fpl_dcheck_NaN1
    ldexp.o(i.__softfp_ldexp) refers (Special) to usenofp.o(x$fpl$usenofp) for __I$use$fp
    ldexp.o(i.__softfp_ldexp) refers to ldexp.o(i.ldexp) for ldexp
    ldexp.o(i.__support_ldexp) refers (Special) to usenofp.o(x$fpl$usenofp) for __I$use$fp
    ldexp.o(i.__support_ldexp) refers to ldexp.o(i.ldexp) for ldexp
    ldexp.o(i.ldexp) refers (Special) to usenofp.o(x$fpl$usenofp) for __I$use$fp
    ldexp.o(i.ldexp) refers to deqf.o(x$fpl$deqf) for __aeabi_cdcmpeq
    ldexp.o(i.ldexp) refers to scalbn.o(x$fpl$scalbn) for __ARM_scalbn
    ldexp.o(i.ldexp) refers to _rserrno.o(.text) for __set_errno
    ldexp.o(i.ldexp) refers to dunder.o(i.__mathlib_dbl_underflow) for __mathlib_dbl_underflow
    ldexp_x.o(i.____softfp_ldexp$lsc) refers (Special) to usenofp.o(x$fpl$usenofp) for __I$use$fp
    ldexp_x.o(i.____softfp_ldexp$lsc) refers to ldexp_x.o(i.__ldexp$lsc) for __ldexp$lsc
    ldexp_x.o(i.____support_ldexp$lsc) refers (Special) to usenofp.o(x$fpl$usenofp) for __I$use$fp
    ldexp_x.o(i.____support_ldexp$lsc) refers to ldexp_x.o(i.__ldexp$lsc) for __ldexp$lsc
    ldexp_x.o(i.__ldexp$lsc) refers (Special) to usenofp.o(x$fpl$usenofp) for __I$use$fp
    ldexp_x.o(i.__ldexp$lsc) refers to deqf.o(x$fpl$deqf) for __aeabi_cdcmpeq
    ldexp_x.o(i.__ldexp$lsc) refers to scalbn.o(x$fpl$scalbn) for __ARM_scalbn
    ldexp_x.o(i.__ldexp$lsc) refers to _rserrno.o(.text) for __set_errno
    ldexp_x.o(i.__ldexp$lsc) refers to qnan.o(.constdata) for __mathlib_zero
    sys_wrch.o(.text) refers (Special) to use_no_semi.o(.text) for __I$use$semihosting
    sys_wrch.o(.text) refers (Special) to indicate_semi.o(.text) for __semihosting_library_function
    defsig.o(CL$$defsig) refers to defsig_rtmem_inner.o(.text) for __rt_SIGRTMEM_inner
    dcheck1.o(x$fpl$dcheck1) refers (Special) to usenofp.o(x$fpl$usenofp) for __I$use$fp
    dcheck1.o(x$fpl$dcheck1) refers to retnan.o(x$fpl$retnan) for __fpl_return_NaN
    dunder.o(i.__mathlib_dbl_underflow) refers to scalbn.o(x$fpl$scalbn) for __ARM_scalbn
    qnan.o(.constdata) refers (Special) to usenofp.o(x$fpl$usenofp) for __I$use$fp
    defsig_abrt_inner.o(.text) refers to defsig_general.o(.text) for __default_signal_display
    defsig_fpe_inner.o(.text) refers to defsig_general.o(.text) for __default_signal_display
    defsig_rtred_inner.o(.text) refers to defsig_general.o(.text) for __default_signal_display
    defsig_stak_inner.o(.text) refers to defsig_general.o(.text) for __default_signal_display
    defsig_pvfn_inner.o(.text) refers to defsig_general.o(.text) for __default_signal_display
    defsig_cppl_inner.o(.text) refers to defsig_general.o(.text) for __default_signal_display
    defsig_segv_inner.o(.text) refers to defsig_general.o(.text) for __default_signal_display
    defsig_other.o(.text) refers to defsig_general.o(.text) for __default_signal_display
    retnan.o(x$fpl$retnan) refers (Special) to usenofp.o(x$fpl$usenofp) for __I$use$fp
    retnan.o(x$fpl$retnan) refers to trapv.o(x$fpl$trapveneer) for __fpl_cmpreturn
    trapv.o(x$fpl$trapveneer) refers (Special) to usenofp.o(x$fpl$usenofp) for __I$use$fp


==============================================================================

Removing Unused input sections from the image.

    Removing stm32f10x_crc.o(.text), (72 bytes).
    Removing stm32f10x_dac.o(.text), (396 bytes).
    Removing stm32f10x_dma.o(.text), (592 bytes).
    Removing stm32f10x_flash.o(.text), (1468 bytes).
    Removing stm32f10x_iwdg.o(.text), (64 bytes).
    Removing stm32f10x_rtc.o(.text), (324 bytes).
    Removing stm32f10x_sdio.o(.text), (472 bytes).
    Removing stm32f10x_wwdg.o(.text), (136 bytes).
    Removing stm32f10x_bkp.o(.text), (196 bytes).
    Removing stm32f10x_pwr.o(.text), (204 bytes).
    Removing cortexm3_macro_rvds.o(.text), (110 bytes).
    Removing core_cm3.o(.emb_text), (32 bytes).
    Removing flash.o(.text), (864 bytes).
    Removing flash.o(.bss), (4096 bytes).
    Removing flash.o(.data), (2 bytes).
    Removing stmflash.o(.text), (576 bytes).
    Removing stmflash.o(.bss), (2048 bytes).
    Removing dma.o(.text), (124 bytes).
    Removing dma.o(.data), (2 bytes).
    Removing lcd.o(.text), (1744 bytes).
    Removing lcd.o(.bss), (200 bytes).
    Removing lcd.o(.constdata), (2764 bytes).
    Removing lcd.o(.data), (60 bytes).
    Removing mmc_sd.o(.text), (1324 bytes).
    Removing mmc_sd.o(.data), (1 bytes).
    Removing rtc.o(.text), (820 bytes).
    Removing rtc.o(.bss), (10 bytes).
    Removing rtc.o(.constdata), (24 bytes).
    Removing rtc.o(.data), (2 bytes).
    Removing queue.o(.text), (1142 bytes).
    Removing diskio.o(.text), (472 bytes).
    Removing diskio.o(.data), (2 bytes).
    Removing ff.o(.text), (10266 bytes).
    Removing ff.o(.constdata), (44 bytes).
    Removing ff.o(.data), (6 bytes).
    Removing uip-fw.o(.text), (804 bytes).
    Removing uip-fw.o(.bss), (28 bytes).
    Removing uip-fw.o(.data), (8 bytes).
    Removing uiplib.o(.text), (94 bytes).
    Removing uip-neighbor.o(.text), (356 bytes).
    Removing uip-neighbor.o(.bss), (96 bytes).
    Removing uip-split.o(.text), (268 bytes).
    Removing tapdev.o(.constdata), (6 bytes).
    Removing udp_demo.o(.text), (324 bytes).
    Removing dhcpc.o(.data), (1 bytes).
    Removing mstptext.o(.text), (96 bytes).
    Removing mstptext.o(.conststring), (268 bytes).
    Removing mstptext.o(.data), (192 bytes).
    Removing bacprop.o(.text), (80 bytes).
    Removing bacprop.o(.data), (144 bytes).
    Removing bacpropstates.o(.text), (796 bytes).
    Removing indtext.o(.text), (356 bytes).
    Removing s_whois.o(.text), (304 bytes).
    Removing rs485.o(.data), (2 bytes).
    Removing decode.o(.text), (1452 bytes).
    Removing decode.o(.data), (12 bytes).
    Removing point.o(.text), (424 bytes).
    Removing range.o(.constdata), (290 bytes).

58 unused section(s) (total 37060 bytes) removed from the image.

==============================================================================

Image Symbol Table

    Local Symbols

    Symbol Name                              Value     Ov Type        Size  Object(Section)

    ../clib/angel/boardlib.s                 0x00000000   Number         0  boardinit1.o ABSOLUTE
    ../clib/angel/boardlib.s                 0x00000000   Number         0  boardinit2.o ABSOLUTE
    ../clib/angel/boardlib.s                 0x00000000   Number         0  boardinit3.o ABSOLUTE
    ../clib/angel/boardlib.s                 0x00000000   Number         0  boardshut.o ABSOLUTE
    ../clib/angel/dclz77c.s                  0x00000000   Number         0  __dclz77c.o ABSOLUTE
    ../clib/angel/handlers.s                 0x00000000   Number         0  __scatter_zi.o ABSOLUTE
    ../clib/angel/kernel.s                   0x00000000   Number         0  rtentry.o ABSOLUTE
    ../clib/angel/kernel.s                   0x00000000   Number         0  rtexit2.o ABSOLUTE
    ../clib/angel/kernel.s                   0x00000000   Number         0  rtexit.o ABSOLUTE
    ../clib/angel/kernel.s                   0x00000000   Number         0  rtentry4.o ABSOLUTE
    ../clib/angel/kernel.s                   0x00000000   Number         0  rtentry2.o ABSOLUTE
    ../clib/angel/rt.s                       0x00000000   Number         0  rt_errno_addr_intlibspace.o ABSOLUTE
    ../clib/angel/rt.s                       0x00000000   Number         0  rt_errno_addr.o ABSOLUTE
    ../clib/angel/rt.s                       0x00000000   Number         0  rt_ctype_table.o ABSOLUTE
    ../clib/angel/rt.s                       0x00000000   Number         0  rt_raise.o ABSOLUTE
    ../clib/angel/rt.s                       0x00000000   Number         0  rt_locale.o ABSOLUTE
    ../clib/angel/rt.s                       0x00000000   Number         0  rt_locale_intlibspace.o ABSOLUTE
    ../clib/angel/scatter.s                  0x00000000   Number         0  __scatter.o ABSOLUTE
    ../clib/angel/startup.s                  0x00000000   Number         0  __main.o ABSOLUTE
    ../clib/angel/sys.s                      0x00000000   Number         0  indicate_semi.o ABSOLUTE
    ../clib/angel/sys.s                      0x00000000   Number         0  sys_stackheap_outer.o ABSOLUTE
    ../clib/angel/sys.s                      0x00000000   Number         0  use_no_semi_2.o ABSOLUTE
    ../clib/angel/sys.s                      0x00000000   Number         0  use_no_semi.o ABSOLUTE
    ../clib/angel/sys.s                      0x00000000   Number         0  libspace.o ABSOLUTE
    ../clib/angel/sysapp.c                   0x00000000   Number         0  sys_wrch.o ABSOLUTE
    ../clib/angel/sysapp.c                   0x00000000   Number         0  sys_command.o ABSOLUTE
    ../clib/armsys.c                         0x00000000   Number         0  argv_veneer.o ABSOLUTE
    ../clib/armsys.c                         0x00000000   Number         0  argv_veneer.o ABSOLUTE
    ../clib/armsys.c                         0x00000000   Number         0  _get_argv_nomalloc.o ABSOLUTE
    ../clib/armsys.c                         0x00000000   Number         0  no_argv.o ABSOLUTE
    ../clib/bigflt.c                         0x00000000   Number         0  bigflt0.o ABSOLUTE
    ../clib/btod.s                           0x00000000   Number         0  btod.o ABSOLUTE
    ../clib/ctype.c                          0x00000000   Number         0  isspace.o ABSOLUTE
    ../clib/ctype.c                          0x00000000   Number         0  tolower.o ABSOLUTE
    ../clib/fenv.c                           0x00000000   Number         0  _rserrno.o ABSOLUTE
    ../clib/heapalloc.c                      0x00000000   Number         0  hrguard.o ABSOLUTE
    ../clib/heapaux.c                        0x00000000   Number         0  heapauxi.o ABSOLUTE
    ../clib/libinit.s                        0x00000000   Number         0  libshutdown.o ABSOLUTE
    ../clib/libinit.s                        0x00000000   Number         0  libshutdown2.o ABSOLUTE
    ../clib/libinit.s                        0x00000000   Number         0  libinit.o ABSOLUTE
    ../clib/libinit.s                        0x00000000   Number         0  libinit2.o ABSOLUTE
    ../clib/locale.s                         0x00000000   Number         0  lc_ctype_c.o ABSOLUTE
    ../clib/locale.s                         0x00000000   Number         0  lc_numeric_c.o ABSOLUTE
    ../clib/longlong.s                       0x00000000   Number         0  lludiv10.o ABSOLUTE
    ../clib/longlong.s                       0x00000000   Number         0  llshl.o ABSOLUTE
    ../clib/memcpset.s                       0x00000000   Number         0  strncpy.o ABSOLUTE
    ../clib/memcpset.s                       0x00000000   Number         0  strcmpv7m.o ABSOLUTE
    ../clib/memcpset.s                       0x00000000   Number         0  rt_memcpy_v6.o ABSOLUTE
    ../clib/memcpset.s                       0x00000000   Number         0  rt_memcpy_w.o ABSOLUTE
    ../clib/memcpset.s                       0x00000000   Number         0  aeabi_memset.o ABSOLUTE
    ../clib/memcpset.s                       0x00000000   Number         0  rt_memclr.o ABSOLUTE
    ../clib/memcpset.s                       0x00000000   Number         0  rt_memclr_w.o ABSOLUTE
    ../clib/misc.s                           0x00000000   Number         0  printf_stubs.o ABSOLUTE
    ../clib/printf.c                         0x00000000   Number         0  noretval__2snprintf.o ABSOLUTE
    ../clib/printf.c                         0x00000000   Number         0  _printf_hex_ll_ptr.o ABSOLUTE
    ../clib/printf.c                         0x00000000   Number         0  _printf_hex_int_ll_ptr.o ABSOLUTE
    ../clib/printf.c                         0x00000000   Number         0  _printf_char_file.o ABSOLUTE
    ../clib/printf.c                         0x00000000   Number         0  _printf_hex_int_ll.o ABSOLUTE
    ../clib/printf.c                         0x00000000   Number         0  _printf_hex_ptr.o ABSOLUTE
    ../clib/printf.c                         0x00000000   Number         0  _printf_hex_int.o ABSOLUTE
    ../clib/printf.c                         0x00000000   Number         0  _printf_hex_ll.o ABSOLUTE
    ../clib/printf.c                         0x00000000   Number         0  _printf_dec.o ABSOLUTE
    ../clib/printf.c                         0x00000000   Number         0  _printf_str.o ABSOLUTE
    ../clib/printf.c                         0x00000000   Number         0  __printf_flags_wp.o ABSOLUTE
    ../clib/printf.c                         0x00000000   Number         0  _printf_pad.o ABSOLUTE
    ../clib/printf.c                         0x00000000   Number         0  __printf.o ABSOLUTE
    ../clib/printf.c                         0x00000000   Number         0  __2printf.o ABSOLUTE
    ../clib/printf.c                         0x00000000   Number         0  _printf_fp_dec.o ABSOLUTE
    ../clib/printf.c                         0x00000000   Number         0  __2sprintf.o ABSOLUTE
    ../clib/printf.c                         0x00000000   Number         0  __2snprintf.o ABSOLUTE
    ../clib/printf.c                         0x00000000   Number         0  __printf_flags_ss_wp.o ABSOLUTE
    ../clib/printf.c                         0x00000000   Number         0  __printf_ss_wp.o ABSOLUTE
    ../clib/printf.c                         0x00000000   Number         0  _printf_fp_infnan.o ABSOLUTE
    ../clib/printf.c                         0x00000000   Number         0  __printf_wp.o ABSOLUTE
    ../clib/printf.c                         0x00000000   Number         0  __printf_flags_ss.o ABSOLUTE
    ../clib/printf.c                         0x00000000   Number         0  __printf_ss.o ABSOLUTE
    ../clib/printf.c                         0x00000000   Number         0  __printf_flags.o ABSOLUTE
    ../clib/printf.c                         0x00000000   Number         0  __printf_nopercent.o ABSOLUTE
    ../clib/printf.c                         0x00000000   Number         0  noretval__2sprintf.o ABSOLUTE
    ../clib/printf.c                         0x00000000   Number         0  noretval__2printf.o ABSOLUTE
    ../clib/printf.c                         0x00000000   Number         0  _printf_char.o ABSOLUTE
    ../clib/printf.c                         0x00000000   Number         0  _printf_intcommon.o ABSOLUTE
    ../clib/printf.c                         0x00000000   Number         0  _printf_char_common.o ABSOLUTE
    ../clib/printf.c                         0x00000000   Number         0  _sputc.o ABSOLUTE
    ../clib/printf.c                         0x00000000   Number         0  _snputc.o ABSOLUTE
    ../clib/printf.c                         0x00000000   Number         0  _printf_hex_int_ptr.o ABSOLUTE
    ../clib/printf_percent.s                 0x00000000   Number         0  _printf_f.o ABSOLUTE
    ../clib/printf_percent.s                 0x00000000   Number         0  _printf_u.o ABSOLUTE
    ../clib/printf_percent.s                 0x00000000   Number         0  _printf_x.o ABSOLUTE
    ../clib/printf_percent.s                 0x00000000   Number         0  _printf_percent_end.o ABSOLUTE
    ../clib/printf_percent.s                 0x00000000   Number         0  _printf_percent.o ABSOLUTE
    ../clib/printf_percent.s                 0x00000000   Number         0  _printf_s.o ABSOLUTE
    ../clib/printf_percent.s                 0x00000000   Number         0  _printf_d.o ABSOLUTE
    ../clib/printf_percent.s                 0x00000000   Number         0  _printf_c.o ABSOLUTE
    ../clib/scanf.c                          0x00000000   Number         0  scanf_infnan.o ABSOLUTE
    ../clib/scanf.c                          0x00000000   Number         0  __0sscanf.o ABSOLUTE
    ../clib/scanf.c                          0x00000000   Number         0  _scanf_int.o ABSOLUTE
    ../clib/scanf.c                          0x00000000   Number         0  scanf_fp.o ABSOLUTE
    ../clib/scanf.c                          0x00000000   Number         0  strtoul.o ABSOLUTE
    ../clib/scanf.c                          0x00000000   Number         0  strtol.o ABSOLUTE
    ../clib/scanf.c                          0x00000000   Number         0  strtod.o ABSOLUTE
    ../clib/scanf.c                          0x00000000   Number         0  _strtoul.o ABSOLUTE
    ../clib/scanf.c                          0x00000000   Number         0  scanf_char.o ABSOLUTE
    ../clib/scanf.c                          0x00000000   Number         0  _chval.o ABSOLUTE
    ../clib/scanf.c                          0x00000000   Number         0  _scanf.o ABSOLUTE
    ../clib/scanf.c                          0x00000000   Number         0  scanf_hexfp.o ABSOLUTE
    ../clib/scanf.c                          0x00000000   Number         0  _sgetc.o ABSOLUTE
    ../clib/signal.c                         0x00000000   Number         0  defsig_rtred_inner.o ABSOLUTE
    ../clib/signal.c                         0x00000000   Number         0  defsig_stak_inner.o ABSOLUTE
    ../clib/signal.c                         0x00000000   Number         0  defsig_pvfn_inner.o ABSOLUTE
    ../clib/signal.c                         0x00000000   Number         0  defsig_rtmem_outer.o ABSOLUTE
    ../clib/signal.c                         0x00000000   Number         0  defsig_cppl_inner.o ABSOLUTE
    ../clib/signal.c                         0x00000000   Number         0  defsig_segv_inner.o ABSOLUTE
    ../clib/signal.c                         0x00000000   Number         0  defsig_rtmem_formal.o ABSOLUTE
    ../clib/signal.c                         0x00000000   Number         0  defsig_abrt_inner.o ABSOLUTE
    ../clib/signal.c                         0x00000000   Number         0  defsig_other.o ABSOLUTE
    ../clib/signal.c                         0x00000000   Number         0  defsig_general.o ABSOLUTE
    ../clib/signal.c                         0x00000000   Number         0  defsig_fpe_inner.o ABSOLUTE
    ../clib/signal.c                         0x00000000   Number         0  defsig_exit.o ABSOLUTE
    ../clib/signal.c                         0x00000000   Number         0  __raise.o ABSOLUTE
    ../clib/signal.c                         0x00000000   Number         0  defsig_rtmem_inner.o ABSOLUTE
    ../clib/signal.s                         0x00000000   Number         0  defsig.o ABSOLUTE
    ../clib/stdio.c                          0x00000000   Number         0  ferror_locked.o ABSOLUTE
    ../clib/stdio.c                          0x00000000   Number         0  ferror.o ABSOLUTE
    ../clib/stdlib.c                         0x00000000   Number         0  rand.o ABSOLUTE
    ../clib/stdlib.c                         0x00000000   Number         0  exit.o ABSOLUTE
    ../clib/stdlib.c                         0x00000000   Number         0  rand.o ABSOLUTE
    ../clib/string.c                         0x00000000   Number         0  strlen.o ABSOLUTE
    ../clib/string.c                         0x00000000   Number         0  strncmp.o ABSOLUTE
    ../clib/string.c                         0x00000000   Number         0  strrchr.o ABSOLUTE
    ../clib/string.c                         0x00000000   Number         0  strcpy.o ABSOLUTE
    ../clib/string.c                         0x00000000   Number         0  memcmp.o ABSOLUTE
    ../clib/string.c                         0x00000000   Number         0  strstr.o ABSOLUTE
    ../clib/string.c                         0x00000000   Number         0  strchr.o ABSOLUTE
    ../fplib/d2f.s                           0x00000000   Number         0  d2f.o ABSOLUTE
    ../fplib/dcheck1.s                       0x00000000   Number         0  dcheck1.o ABSOLUTE
    ../fplib/dcmpi.s                         0x00000000   Number         0  dcmpi.o ABSOLUTE
    ../fplib/ddiv.s                          0x00000000   Number         0  ddiv.o ABSOLUTE
    ../fplib/deqf.s                          0x00000000   Number         0  deqf.o ABSOLUTE
    ../fplib/dflt.s                          0x00000000   Number         0  dflt_clz.o ABSOLUTE
    ../fplib/dleqf.s                         0x00000000   Number         0  dleqf.o ABSOLUTE
    ../fplib/dnaninf.s                       0x00000000   Number         0  dnaninf.o ABSOLUTE
    ../fplib/dretinf.s                       0x00000000   Number         0  dretinf.o ABSOLUTE
    ../fplib/drleqf.s                        0x00000000   Number         0  drleqf.o ABSOLUTE
    ../fplib/f2d.s                           0x00000000   Number         0  f2d.o ABSOLUTE
    ../fplib/fcmpi.s                         0x00000000   Number         0  fcmpi.o ABSOLUTE
    ../fplib/fdiv.s                          0x00000000   Number         0  fdiv.o ABSOLUTE
    ../fplib/ffix.s                          0x00000000   Number         0  ffix.o ABSOLUTE
    ../fplib/ffixu.s                         0x00000000   Number         0  ffixu.o ABSOLUTE
    ../fplib/fflt.s                          0x00000000   Number         0  fflt_clz.o ABSOLUTE
    ../fplib/fleqf.s                         0x00000000   Number         0  fleqf.o ABSOLUTE
    ../fplib/fmul.s                          0x00000000   Number         0  fmul.o ABSOLUTE
    ../fplib/fnaninf.s                       0x00000000   Number         0  fnaninf.o ABSOLUTE
    ../fplib/fpconst.s                       0x00000000   Number         0  fpconst.o ABSOLUTE
    ../fplib/fpinit.s                        0x00000000   Number         0  fpinit.o ABSOLUTE
    ../fplib/fretinf.s                       0x00000000   Number         0  fretinf.o ABSOLUTE
    ../fplib/frleqf.s                        0x00000000   Number         0  frleqf.o ABSOLUTE
    ../fplib/istatus.s                       0x00000000   Number         0  istatus.o ABSOLUTE
    ../fplib/printf1.s                       0x00000000   Number         0  printf1.o ABSOLUTE
    ../fplib/retnan.s                        0x00000000   Number         0  retnan.o ABSOLUTE
    ../fplib/scalbn.s                        0x00000000   Number         0  scalbn.o ABSOLUTE
    ../fplib/scanf1.s                        0x00000000   Number         0  scanf1.o ABSOLUTE
    ../fplib/scanf2.s                        0x00000000   Number         0  scanf2.o ABSOLUTE
    ../fplib/scanf2a.s                       0x00000000   Number         0  scanf2a.o ABSOLUTE
    ../fplib/scanf2b.s                       0x00000000   Number         0  scanf2b.o ABSOLUTE
    ../fplib/trapv.s                         0x00000000   Number         0  trapv.o ABSOLUTE
    ../fplib/usenofp.s                       0x00000000   Number         0  usenofp.o ABSOLUTE
    ../mathlib/dunder.c                      0x00000000   Number         0  dunder.o ABSOLUTE
    ../mathlib/fpclassify.c                  0x00000000   Number         0  fpclassify.o ABSOLUTE
    ../mathlib/frexp.c                       0x00000000   Number         0  frexp.o ABSOLUTE
    ../mathlib/ldexp.c                       0x00000000   Number         0  ldexp.o ABSOLUTE
    ../mathlib/ldexp.c                       0x00000000   Number         0  ldexp_x.o ABSOLUTE
    ../mathlib/narrow.c                      0x00000000   Number         0  narrow.o ABSOLUTE
    ../mathlib/qnan.c                        0x00000000   Number         0  qnan.o ABSOLUTE
    ../mathlib/strtod.c                      0x00000000   Number         0  strtod.o ABSOLUTE
    ..\CORE\core_cm3.c                       0x00000000   Number         0  core_cm3.o ABSOLUTE
    ..\CORE\cortexm3_macro_rvds.s            0x00000000   Number         0  cortexm3_macro_rvds.o ABSOLUTE
    ..\CORE\startup_stm32f10x_hd.s           0x00000000   Number         0  startup_stm32f10x_hd.o ABSOLUTE
    ..\FATFS\src\diskio.c                    0x00000000   Number         0  diskio.o ABSOLUTE
    ..\FATFS\src\ff.c                        0x00000000   Number         0  ff.o ABSOLUTE
    ..\FILTER\filter.c                       0x00000000   Number         0  filter.o ABSOLUTE
    ..\FreeRTOS\list.c                       0x00000000   Number         0  list.o ABSOLUTE
    ..\FreeRTOS\portable\MemMang\heap_2.c    0x00000000   Number         0  heap_2.o ABSOLUTE
    ..\FreeRTOS\portable\RVDS\ARM_CM3\port.c 0x00000000   Number         0  port.o ABSOLUTE
    ..\FreeRTOS\queue.c                      0x00000000   Number         0  queue.o ABSOLUTE
    ..\FreeRTOS\tasks.c                      0x00000000   Number         0  tasks.o ABSOLUTE
    ..\HARDWARE\24CXX\24cxx.c                0x00000000   Number         0  24cxx.o ABSOLUTE
    ..\HARDWARE\DMA\dma.c                    0x00000000   Number         0  dma.o ABSOLUTE
    ..\HARDWARE\ENC28J60\enc28j60.c          0x00000000   Number         0  enc28j60.o ABSOLUTE
    ..\HARDWARE\FLASH\flash.c                0x00000000   Number         0  flash.o ABSOLUTE
    ..\HARDWARE\IIC\myiic.c                  0x00000000   Number         0  myiic.o ABSOLUTE
    ..\HARDWARE\LCD\LCD.c                    0x00000000   Number         0  lcd.o ABSOLUTE
    ..\HARDWARE\LED\led.c                    0x00000000   Number         0  led.o ABSOLUTE
    ..\HARDWARE\RTC\rtc.c                    0x00000000   Number         0  rtc.o ABSOLUTE
    ..\HARDWARE\SDCARD\MMC_SD.C              0x00000000   Number         0  mmc_sd.o ABSOLUTE
    ..\HARDWARE\SPI\spi.c                    0x00000000   Number         0  spi.o ABSOLUTE
    ..\HARDWARE\STMFLASH\stmflash.c          0x00000000   Number         0  stmflash.o ABSOLUTE
    ..\HARDWARE\TIMER\timerx.c               0x00000000   Number         0  timerx.o ABSOLUTE
    ..\KEY\key.c                             0x00000000   Number         0  key.o ABSOLUTE
    ..\MODBUS\crc.c                          0x00000000   Number         0  crc.o ABSOLUTE
    ..\MODBUS\modbus.c                       0x00000000   Number         0  modbus.o ABSOLUTE
    ..\OUTPUT\output.c                       0x00000000   Number         0  output.o ABSOLUTE
    ..\RANGE\RANGE.C                         0x00000000   Number         0  range.o ABSOLUTE
    ..\STM32F10x_FWLib\src\misc.c            0x00000000   Number         0  misc.o ABSOLUTE
    ..\STM32F10x_FWLib\src\stm32f10x_adc.c   0x00000000   Number         0  stm32f10x_adc.o ABSOLUTE
    ..\STM32F10x_FWLib\src\stm32f10x_bkp.c   0x00000000   Number         0  stm32f10x_bkp.o ABSOLUTE
    ..\STM32F10x_FWLib\src\stm32f10x_crc.c   0x00000000   Number         0  stm32f10x_crc.o ABSOLUTE
    ..\STM32F10x_FWLib\src\stm32f10x_dac.c   0x00000000   Number         0  stm32f10x_dac.o ABSOLUTE
    ..\STM32F10x_FWLib\src\stm32f10x_dma.c   0x00000000   Number         0  stm32f10x_dma.o ABSOLUTE
    ..\STM32F10x_FWLib\src\stm32f10x_exti.c  0x00000000   Number         0  stm32f10x_exti.o ABSOLUTE
    ..\STM32F10x_FWLib\src\stm32f10x_flash.c 0x00000000   Number         0  stm32f10x_flash.o ABSOLUTE
    ..\STM32F10x_FWLib\src\stm32f10x_gpio.c  0x00000000   Number         0  stm32f10x_gpio.o ABSOLUTE
    ..\STM32F10x_FWLib\src\stm32f10x_iwdg.c  0x00000000   Number         0  stm32f10x_iwdg.o ABSOLUTE
    ..\STM32F10x_FWLib\src\stm32f10x_pwr.c   0x00000000   Number         0  stm32f10x_pwr.o ABSOLUTE
    ..\STM32F10x_FWLib\src\stm32f10x_rcc.c   0x00000000   Number         0  stm32f10x_rcc.o ABSOLUTE
    ..\STM32F10x_FWLib\src\stm32f10x_rtc.c   0x00000000   Number         0  stm32f10x_rtc.o ABSOLUTE
    ..\STM32F10x_FWLib\src\stm32f10x_sdio.c  0x00000000   Number         0  stm32f10x_sdio.o ABSOLUTE
    ..\STM32F10x_FWLib\src\stm32f10x_spi.c   0x00000000   Number         0  stm32f10x_spi.o ABSOLUTE
    ..\STM32F10x_FWLib\src\stm32f10x_tim.c   0x00000000   Number         0  stm32f10x_tim.o ABSOLUTE
    ..\STM32F10x_FWLib\src\stm32f10x_usart.c 0x00000000   Number         0  stm32f10x_usart.o ABSOLUTE
    ..\STM32F10x_FWLib\src\stm32f10x_wwdg.c  0x00000000   Number         0  stm32f10x_wwdg.o ABSOLUTE
    ..\SYSTEM\delay\delay.c                  0x00000000   Number         0  delay.o ABSOLUTE
    ..\SYSTEM\usart\usart.c                  0x00000000   Number         0  usart.o ABSOLUTE
    ..\VMALLOC\vmalloc.c                     0x00000000   Number         0  vmalloc.o ABSOLUTE
    ..\\CORE\\core_cm3.c                     0x00000000   Number         0  core_cm3.o ABSOLUTE
    ..\\FreeRTOS\\portable\\RVDS\\ARM_CM3\\port.c 0x00000000   Number         0  port.o ABSOLUTE
    ..\bac_lib\POINT.C                       0x00000000   Number         0  point.o ABSOLUTE
    ..\bac_lib\abort.c                       0x00000000   Number         0  abort.o ABSOLUTE
    ..\bac_lib\ai.c                          0x00000000   Number         0  ai.o ABSOLUTE
    ..\bac_lib\ao.c                          0x00000000   Number         0  ao.o ABSOLUTE
    ..\bac_lib\apdu.c                        0x00000000   Number         0  apdu.o ABSOLUTE
    ..\bac_lib\av.c                          0x00000000   Number         0  av.o ABSOLUTE
    ..\bac_lib\bacaddr.c                     0x00000000   Number         0  bacaddr.o ABSOLUTE
    ..\bac_lib\bacapp.c                      0x00000000   Number         0  bacapp.o ABSOLUTE
    ..\bac_lib\bacdcode.c                    0x00000000   Number         0  bacdcode.o ABSOLUTE
    ..\bac_lib\bacerror.c                    0x00000000   Number         0  bacerror.o ABSOLUTE
    ..\bac_lib\bacint.c                      0x00000000   Number         0  bacint.o ABSOLUTE
    ..\bac_lib\bacnetcrc.c                   0x00000000   Number         0  bacnetcrc.o ABSOLUTE
    ..\bac_lib\bacnettimer.c                 0x00000000   Number         0  bacnettimer.o ABSOLUTE
    ..\bac_lib\bacprop.c                     0x00000000   Number         0  bacprop.o ABSOLUTE
    ..\bac_lib\bacpropstates.c               0x00000000   Number         0  bacpropstates.o ABSOLUTE
    ..\bac_lib\bacreal.c                     0x00000000   Number         0  bacreal.o ABSOLUTE
    ..\bac_lib\bacstr.c                      0x00000000   Number         0  bacstr.o ABSOLUTE
    ..\bac_lib\bi.c                          0x00000000   Number         0  bi.o ABSOLUTE
    ..\bac_lib\bip.c                         0x00000000   Number         0  bip.o ABSOLUTE
    ..\bac_lib\bo.c                          0x00000000   Number         0  bo.o ABSOLUTE
    ..\bac_lib\bv.c                          0x00000000   Number         0  bv.o ABSOLUTE
    ..\bac_lib\bvlc.c                        0x00000000   Number         0  bvlc.o ABSOLUTE
    ..\bac_lib\datalink.c                    0x00000000   Number         0  datalink.o ABSOLUTE
    ..\bac_lib\datetime.c                    0x00000000   Number         0  datetime.o ABSOLUTE
    ..\bac_lib\dcc.c                         0x00000000   Number         0  dcc.o ABSOLUTE
    ..\bac_lib\decode.c                      0x00000000   Number         0  decode.o ABSOLUTE
    ..\bac_lib\device.c                      0x00000000   Number         0  device.o ABSOLUTE
    ..\bac_lib\dlmstp.c                      0x00000000   Number         0  dlmstp.o ABSOLUTE
    ..\bac_lib\fifo.c                        0x00000000   Number         0  fifo.o ABSOLUTE
    ..\bac_lib\h_iam.c                       0x00000000   Number         0  h_iam.o ABSOLUTE
    ..\bac_lib\h_npdu.c                      0x00000000   Number         0  h_npdu.o ABSOLUTE
    ..\bac_lib\h_rp.c                        0x00000000   Number         0  h_rp.o ABSOLUTE
    ..\bac_lib\h_whois.c                     0x00000000   Number         0  h_whois.o ABSOLUTE
    ..\bac_lib\h_wp.c                        0x00000000   Number         0  h_wp.o ABSOLUTE
    ..\bac_lib\iam.c                         0x00000000   Number         0  iam.o ABSOLUTE
    ..\bac_lib\indtext.c                     0x00000000   Number         0  indtext.o ABSOLUTE
    ..\bac_lib\mstptext.c                    0x00000000   Number         0  mstptext.o ABSOLUTE
    ..\bac_lib\noserv.c                      0x00000000   Number         0  noserv.o ABSOLUTE
    ..\bac_lib\npdu.c                        0x00000000   Number         0  npdu.o ABSOLUTE
    ..\bac_lib\ptransfer.c                   0x00000000   Number         0  ptransfer.o ABSOLUTE
    ..\bac_lib\reject.c                      0x00000000   Number         0  reject.o ABSOLUTE
    ..\bac_lib\rp.c                          0x00000000   Number         0  rp.o ABSOLUTE
    ..\bac_lib\rs485.c                       0x00000000   Number         0  rs485.o ABSOLUTE
    ..\bac_lib\s_iam.c                       0x00000000   Number         0  s_iam.o ABSOLUTE
    ..\bac_lib\s_upt.c                       0x00000000   Number         0  s_upt.o ABSOLUTE
    ..\bac_lib\s_whois.c                     0x00000000   Number         0  s_whois.o ABSOLUTE
    ..\bac_lib\txbuf.c                       0x00000000   Number         0  txbuf.o ABSOLUTE
    ..\bac_lib\user_data.c                   0x00000000   Number         0  user_data.o ABSOLUTE
    ..\bac_lib\whois.c                       0x00000000   Number         0  whois.o ABSOLUTE
    ..\bac_lib\wp.c                          0x00000000   Number         0  wp.o ABSOLUTE
    ..\uIP-1.0\apps\dhcpc\dhcpc.c            0x00000000   Number         0  dhcpc.o ABSOLUTE
    ..\uIP-1.0\apps\resolv\resolv.c          0x00000000   Number         0  resolv.o ABSOLUTE
    ..\uIP-1.0\apps\webserver\http-strings.c 0x00000000   Number         0  http-strings.o ABSOLUTE
    ..\uIP-1.0\apps\webserver\httpd-cgi.c    0x00000000   Number         0  httpd-cgi.o ABSOLUTE
    ..\uIP-1.0\apps\webserver\httpd-fs.c     0x00000000   Number         0  httpd-fs.o ABSOLUTE
    ..\uIP-1.0\apps\webserver\httpd.c        0x00000000   Number         0  httpd.o ABSOLUTE
    ..\uIP-1.0\uip\psock.c                   0x00000000   Number         0  psock.o ABSOLUTE
    ..\uIP-1.0\uip\timer.c                   0x00000000   Number         0  timer.o ABSOLUTE
    ..\uIP-1.0\uip\uip-fw.c                  0x00000000   Number         0  uip-fw.o ABSOLUTE
    ..\uIP-1.0\uip\uip-neighbor.c            0x00000000   Number         0  uip-neighbor.o ABSOLUTE
    ..\uIP-1.0\uip\uip-split.c               0x00000000   Number         0  uip-split.o ABSOLUTE
    ..\uIP-1.0\uip\uip.c                     0x00000000   Number         0  uip.o ABSOLUTE
    ..\uIP-1.0\uip\uip_arp.c                 0x00000000   Number         0  uip_arp.o ABSOLUTE
    ..\uIP-1.0\uip\uiplib.c                  0x00000000   Number         0  uiplib.o ABSOLUTE
    ..\uIP-APP\clock-arch.c                  0x00000000   Number         0  clock-arch.o ABSOLUTE
    ..\uIP-APP\tapdev.c                      0x00000000   Number         0  tapdev.o ABSOLUTE
    ..\uIP-APP\tcp_client_demo.c             0x00000000   Number         0  tcp_client_demo.o ABSOLUTE
    ..\uIP-APP\tcp_demo.c                    0x00000000   Number         0  tcp_demo.o ABSOLUTE
    ..\uIP-APP\tcp_modbus.c                  0x00000000   Number         0  tcp_modbus.o ABSOLUTE
    ..\uIP-APP\tcp_server_demo.c             0x00000000   Number         0  tcp_server_demo.o ABSOLUTE
    ..\uIP-APP\udp_demo.c                    0x00000000   Number         0  udp_demo.o ABSOLUTE
    ..\uIP-APP\udp_scan.c                    0x00000000   Number         0  udp_scan.o ABSOLUTE
    dc.s                                     0x00000000   Number         0  dc.o ABSOLUTE
    inputs.c                                 0x00000000   Number         0  inputs.o ABSOLUTE
    main.c                                   0x00000000   Number         0  main.o ABSOLUTE
    modbus_regOp.c                           0x00000000   Number         0  modbus_regop.o ABSOLUTE
    modbus_response.c                        0x00000000   Number         0  modbus_response.o ABSOLUTE
    pt12_i2c.c                               0x00000000   Number         0  pt12_i2c.o ABSOLUTE
    read_pt.c                                0x00000000   Number         0  read_pt.o ABSOLUTE
    stm32f10x_it.c                           0x00000000   Number         0  stm32f10x_it.o ABSOLUTE
    system_stm32f10x.c                       0x00000000   Number         0  system_stm32f10x.o ABSOLUTE
    t3-pt12.c                                0x00000000   Number         0  t3-pt12.o ABSOLUTE
    RESET                                    0x08008000   Section      304  startup_stm32f10x_hd.o(RESET)
    !!!main                                  0x08008130   Section        8  __main.o(!!!main)
    !!!scatter                               0x08008138   Section       52  __scatter.o(!!!scatter)
    !!dclz77c                                0x0800816c   Section      100  __dclz77c.o(!!dclz77c)
    !!handler_zi                             0x080081d0   Section       28  __scatter_zi.o(!!handler_zi)
    .ARM.Collect$$_printf_percent$$00000000  0x080081ec   Section        0  _printf_percent.o(.ARM.Collect$$_printf_percent$$00000000)
    .ARM.Collect$$_printf_percent$$00000009  0x080081ec   Section        6  _printf_d.o(.ARM.Collect$$_printf_percent$$00000009)
    .ARM.Collect$$_printf_percent$$0000000A  0x080081f2   Section        6  _printf_u.o(.ARM.Collect$$_printf_percent$$0000000A)
    .ARM.Collect$$_printf_percent$$00000013  0x080081f8   Section        6  _printf_c.o(.ARM.Collect$$_printf_percent$$00000013)
    .ARM.Collect$$_printf_percent$$00000014  0x080081fe   Section        6  _printf_s.o(.ARM.Collect$$_printf_percent$$00000014)
    .ARM.Collect$$_printf_percent$$00000017  0x08008204   Section        4  _printf_percent_end.o(.ARM.Collect$$_printf_percent$$00000017)
    .ARM.Collect$$libinit$$00000000          0x08008208   Section        2  libinit.o(.ARM.Collect$$libinit$$00000000)
    .ARM.Collect$$libinit$$00000002          0x0800820a   Section        0  libinit2.o(.ARM.Collect$$libinit$$00000002)
    .ARM.Collect$$libinit$$00000008          0x0800820a   Section        0  libinit2.o(.ARM.Collect$$libinit$$00000008)
    .ARM.Collect$$libinit$$0000000A          0x0800820a   Section        0  libinit2.o(.ARM.Collect$$libinit$$0000000A)
    .ARM.Collect$$libinit$$0000000B          0x0800820a   Section        4  libinit2.o(.ARM.Collect$$libinit$$0000000B)
    .ARM.Collect$$libinit$$0000000C          0x0800820e   Section        0  libinit2.o(.ARM.Collect$$libinit$$0000000C)
    .ARM.Collect$$libinit$$0000000D          0x0800820e   Section        6  libinit2.o(.ARM.Collect$$libinit$$0000000D)
    .ARM.Collect$$libinit$$0000000F          0x08008214   Section        0  libinit2.o(.ARM.Collect$$libinit$$0000000F)
    .ARM.Collect$$libinit$$00000010          0x08008214   Section       12  libinit2.o(.ARM.Collect$$libinit$$00000010)
    .ARM.Collect$$libinit$$00000011          0x08008220   Section        0  libinit2.o(.ARM.Collect$$libinit$$00000011)
    .ARM.Collect$$libinit$$00000013          0x08008220   Section        0  libinit2.o(.ARM.Collect$$libinit$$00000013)
    .ARM.Collect$$libinit$$00000014          0x08008220   Section       10  libinit2.o(.ARM.Collect$$libinit$$00000014)
    .ARM.Collect$$libinit$$00000015          0x0800822a   Section        0  libinit2.o(.ARM.Collect$$libinit$$00000015)
    .ARM.Collect$$libinit$$00000017          0x0800822a   Section        0  libinit2.o(.ARM.Collect$$libinit$$00000017)
    .ARM.Collect$$libinit$$00000019          0x0800822a   Section        0  libinit2.o(.ARM.Collect$$libinit$$00000019)
    .ARM.Collect$$libinit$$0000001B          0x0800822a   Section        0  libinit2.o(.ARM.Collect$$libinit$$0000001B)
    .ARM.Collect$$libinit$$0000001D          0x0800822a   Section        0  libinit2.o(.ARM.Collect$$libinit$$0000001D)
    .ARM.Collect$$libinit$$0000001F          0x0800822a   Section        0  libinit2.o(.ARM.Collect$$libinit$$0000001F)
    .ARM.Collect$$libinit$$00000021          0x0800822a   Section        0  libinit2.o(.ARM.Collect$$libinit$$00000021)
    .ARM.Collect$$libinit$$00000023          0x0800822a   Section        0  libinit2.o(.ARM.Collect$$libinit$$00000023)
    .ARM.Collect$$libinit$$0000002A          0x0800822a   Section        0  libinit2.o(.ARM.Collect$$libinit$$0000002A)
    .ARM.Collect$$libinit$$0000002C          0x0800822a   Section        0  libinit2.o(.ARM.Collect$$libinit$$0000002C)
    .ARM.Collect$$libinit$$0000002E          0x0800822a   Section        0  libinit2.o(.ARM.Collect$$libinit$$0000002E)
    .ARM.Collect$$libinit$$00000030          0x0800822a   Section        0  libinit2.o(.ARM.Collect$$libinit$$00000030)
    .ARM.Collect$$libinit$$00000031          0x0800822a   Section        2  libinit2.o(.ARM.Collect$$libinit$$00000031)
    .ARM.Collect$$libshutdown$$00000000      0x0800822c   Section        2  libshutdown.o(.ARM.Collect$$libshutdown$$00000000)
    .ARM.Collect$$libshutdown$$00000003      0x0800822e   Section        0  libshutdown2.o(.ARM.Collect$$libshutdown$$00000003)
    .ARM.Collect$$libshutdown$$00000006      0x0800822e   Section        0  libshutdown2.o(.ARM.Collect$$libshutdown$$00000006)
    .ARM.Collect$$libshutdown$$00000009      0x0800822e   Section        0  libshutdown2.o(.ARM.Collect$$libshutdown$$00000009)
    .ARM.Collect$$libshutdown$$0000000B      0x0800822e   Section        0  libshutdown2.o(.ARM.Collect$$libshutdown$$0000000B)
    .ARM.Collect$$libshutdown$$0000000E      0x0800822e   Section        0  libshutdown2.o(.ARM.Collect$$libshutdown$$0000000E)
    .ARM.Collect$$libshutdown$$0000000F      0x0800822e   Section        2  libshutdown2.o(.ARM.Collect$$libshutdown$$0000000F)
    .ARM.Collect$$rtentry$$00000000          0x08008230   Section        0  rtentry.o(.ARM.Collect$$rtentry$$00000000)
    .ARM.Collect$$rtentry$$00000002          0x08008230   Section        0  rtentry2.o(.ARM.Collect$$rtentry$$00000002)
    .ARM.Collect$$rtentry$$00000004          0x08008230   Section        6  rtentry4.o(.ARM.Collect$$rtentry$$00000004)
    .ARM.Collect$$rtentry$$00000009          0x08008236   Section        0  rtentry2.o(.ARM.Collect$$rtentry$$00000009)
    .ARM.Collect$$rtentry$$0000000A          0x08008236   Section        4  rtentry2.o(.ARM.Collect$$rtentry$$0000000A)
    .ARM.Collect$$rtentry$$0000000C          0x0800823a   Section        0  rtentry2.o(.ARM.Collect$$rtentry$$0000000C)
    .ARM.Collect$$rtentry$$0000000D          0x0800823a   Section        8  rtentry2.o(.ARM.Collect$$rtentry$$0000000D)
    .ARM.Collect$$rtexit$$00000000           0x08008242   Section        2  rtexit.o(.ARM.Collect$$rtexit$$00000000)
    .ARM.Collect$$rtexit$$00000002           0x08008244   Section        0  rtexit2.o(.ARM.Collect$$rtexit$$00000002)
    .ARM.Collect$$rtexit$$00000003           0x08008244   Section        4  rtexit2.o(.ARM.Collect$$rtexit$$00000003)
    .ARM.Collect$$rtexit$$00000004           0x08008248   Section        6  rtexit2.o(.ARM.Collect$$rtexit$$00000004)
    .emb_text                                0x08008250   Section      140  port.o(.emb_text)
    .emb_text                                0x080082dc   Section       52  rand.o(.emb_text)
    .text                                    0x08008310   Section        0  main.o(.text)
    debug_config                             0x08008311   Thumb Code    20  main.o(.text)
    vMSTP_TASK                               0x08008335   Thumb Code    72  main.o(.text)
    vNETTask                                 0x08008467   Thumb Code    54  main.o(.text)
    vCOMMTask                                0x0800849d   Thumb Code    70  main.o(.text)
    vLED0Task                                0x080084e3   Thumb Code    44  main.o(.text)
    vINPUTSTask                              0x08008587   Thumb Code    38  main.o(.text)
    .text                                    0x080093f0   Section        0  stm32f10x_it.o(.text)
    .text                                    0x080094b0   Section        0  system_stm32f10x.o(.text)
    SetSysClockTo72                          0x080094b1   Thumb Code   212  system_stm32f10x.o(.text)
    SetSysClock                              0x08009585   Thumb Code     8  system_stm32f10x.o(.text)
    .text                                    0x0800968c   Section        0  modbus_regop.o(.text)
    .text                                    0x0800a454   Section        0  modbus_response.o(.text)
    .text                                    0x0800b628   Section        0  misc.o(.text)
    .text                                    0x0800b704   Section        0  stm32f10x_adc.o(.text)
    .text                                    0x0800bb54   Section        0  stm32f10x_exti.o(.text)
    .text                                    0x0800bc70   Section        0  stm32f10x_gpio.o(.text)
    .text                                    0x0800bfc8   Section        0  stm32f10x_rcc.o(.text)
    .text                                    0x0800c36c   Section        0  stm32f10x_spi.o(.text)
    .text                                    0x0800c678   Section        0  stm32f10x_tim.o(.text)
    TI4_Config                               0x0800cb1f   Thumb Code   130  stm32f10x_tim.o(.text)
    TI3_Config                               0x0800cbb3   Thumb Code   122  stm32f10x_tim.o(.text)
    TI2_Config                               0x0800cc47   Thumb Code   130  stm32f10x_tim.o(.text)
    TI1_Config                               0x0800ccdb   Thumb Code   108  stm32f10x_tim.o(.text)
    .text                                    0x0800d494   Section        0  stm32f10x_usart.o(.text)
    .text                                    0x0800d89c   Section       64  startup_stm32f10x_hd.o(.text)
    .text                                    0x0800d8dc   Section        0  led.o(.text)
    .text                                    0x0800dae4   Section        0  myiic.o(.text)
    .text                                    0x0800dd80   Section        0  24cxx.o(.text)
    .text                                    0x0800df18   Section        0  spi.o(.text)
    .text                                    0x0800e130   Section        0  timerx.o(.text)
    .text                                    0x0800e25c   Section        0  enc28j60.o(.text)
    .text                                    0x0800e6e0   Section        0  inputs.o(.text)
    .text                                    0x0800ec0c   Section        0  key.o(.text)
    .text                                    0x0800ec54   Section        0  tasks.o(.text)
    prvInitialiseTaskLists                   0x0800ec55   Thumb Code    70  tasks.o(.text)
    prvInitialiseTCBVariables                0x0800ec9b   Thumb Code    68  tasks.o(.text)
    prvAllocateTCBAndStack                   0x0800ecdf   Thumb Code    58  tasks.o(.text)
    prvAddCurrentTaskToDelayedList           0x0800f007   Thumb Code   146  tasks.o(.text)
    prvDeleteTCB                             0x0800f3b1   Thumb Code    18  tasks.o(.text)
    prvCheckTasksWaitingTermination          0x0800f3c3   Thumb Code    82  tasks.o(.text)
    prvIdleTask                              0x0800f415   Thumb Code    20  tasks.o(.text)
    .text                                    0x0800f628   Section        0  list.o(.text)
    .text                                    0x0800f6bc   Section        0  port.o(.text)
    prvSetupTimerInterrupt                   0x0800f6d7   Thumb Code    14  port.o(.text)
    .text                                    0x0800f770   Section        0  heap_2.o(.text)
    .text                                    0x0800f888   Section        0  usart.o(.text)
    .text                                    0x0800f988   Section        0  delay.o(.text)
    .text                                    0x0800fa6c   Section        0  psock.o(.text)
    buf_setup                                0x0800fa6d   Thumb Code     6  psock.o(.text)
    buf_bufdata                              0x0800fa73   Thumb Code   150  psock.o(.text)
    buf_bufto                                0x0800fb09   Thumb Code   102  psock.o(.text)
    send_data                                0x0800fb6f   Thumb Code    70  psock.o(.text)
    data_acked                               0x0800fbb5   Thumb Code    82  psock.o(.text)
    .text                                    0x0800fe98   Section        0  timer.o(.text)
    .text                                    0x0800fed8   Section        0  uip.o(.text)
    chksum                                   0x0800ff49   Thumb Code    70  uip.o(.text)
    upper_layer_chksum                       0x0800ffd1   Thumb Code    68  uip.o(.text)
    uip_add_rcv_nxt                          0x08010303   Thumb Code    58  uip.o(.text)
    .text                                    0x0801165c   Section        0  uip_arp.o(.text)
    uip_arp_update                           0x080116d7   Thumb Code   272  uip_arp.o(.text)
    .text                                    0x08011a68   Section        0  clock-arch.o(.text)
    .text                                    0x08011a74   Section        0  tapdev.o(.text)
    .text                                    0x08011c70   Section        0  tcp_client_demo.o(.text)
    .text                                    0x08011eac   Section        0  tcp_demo.o(.text)
    .text                                    0x08011f04   Section        0  dhcpc.o(.text)
    add_msg_type                             0x08011f05   Thumb Code    18  dhcpc.o(.text)
    add_server_id                            0x08011f17   Thumb Code    24  dhcpc.o(.text)
    add_req_ipaddr                           0x08011f2f   Thumb Code    24  dhcpc.o(.text)
    add_req_options                          0x08011f47   Thumb Code    32  dhcpc.o(.text)
    add_end                                  0x08011f67   Thumb Code     8  dhcpc.o(.text)
    create_msg                               0x08011f6f   Thumb Code   114  dhcpc.o(.text)
    send_discover                            0x08011fe1   Thumb Code    56  dhcpc.o(.text)
    send_request                             0x08012019   Thumb Code    64  dhcpc.o(.text)
    parse_options                            0x08012059   Thumb Code   118  dhcpc.o(.text)
    parse_msg                                0x080120cf   Thumb Code    64  dhcpc.o(.text)
    handle_dhcp                              0x080121a7   Thumb Code   506  dhcpc.o(.text)
    .text                                    0x08012420   Section        0  resolv.o(.text)
    parse_name                               0x08012421   Thumb Code    30  resolv.o(.text)
    check_entries                            0x0801248b   Thumb Code   264  resolv.o(.text)
    newdata                                  0x08012593   Thumb Code   222  resolv.o(.text)
    .text                                    0x08012854   Section        0  httpd.o(.text)
    generate_part_of_file                    0x08012855   Thumb Code    66  httpd.o(.text)
    send_file                                0x08012897   Thumb Code    94  httpd.o(.text)
    send_part_of_file                        0x080128f5   Thumb Code    62  httpd.o(.text)
    next_scriptstate                         0x08012933   Thumb Code    34  httpd.o(.text)
    handle_script                            0x08012955   Thumb Code   382  httpd.o(.text)
    send_headers                             0x08012ad3   Thumb Code   514  httpd.o(.text)
    handle_output                            0x08012cd5   Thumb Code   250  httpd.o(.text)
    handle_input                             0x08012dcf   Thumb Code   946  httpd.o(.text)
    handle_connection                        0x08013181   Thumb Code    26  httpd.o(.text)
    .text                                    0x08013244   Section        0  httpd-cgi.o(.text)
    nullfunction                             0x08013245   Thumb Code    24  httpd-cgi.o(.text)
    generate_file_stats                      0x0801328f   Thumb Code    34  httpd-cgi.o(.text)
    file_stats                               0x080132b1   Thumb Code    74  httpd-cgi.o(.text)
    generate_tcp_stats                       0x080132fb   Thumb Code   164  httpd-cgi.o(.text)
    tcp_stats                                0x0801339f   Thumb Code   108  httpd-cgi.o(.text)
    generate_net_stats                       0x0801340b   Thumb Code    34  httpd-cgi.o(.text)
    net_stats                                0x0801342d   Thumb Code    86  httpd-cgi.o(.text)
    .text                                    0x080134b8   Section        0  httpd-fs.o(.text)
    httpd_fs_strcmp                          0x080134b9   Thumb Code    48  httpd-fs.o(.text)
    .text                                    0x08013574   Section        0  udp_scan.o(.text)
    .text                                    0x08013a6c   Section        0  tcp_modbus.o(.text)
    .text                                    0x08013c70   Section        0  modbus.o(.text)
    initSend_COM                             0x08013e0d   Thumb Code     8  modbus.o(.text)
    .text                                    0x08014270   Section        0  crc.o(.text)
    .text                                    0x080142e4   Section        0  filter.o(.text)
    .text                                    0x08014588   Section        0  bacdcode.o(.text)
    byte_reverse_bits                        0x08014a95   Thumb Code    86  bacdcode.o(.text)
    .text                                    0x08015652   Section        0  bacreal.o(.text)
    .text                                    0x080157c8   Section        0  bacint.o(.text)
    .text                                    0x08015994   Section        0  bacaddr.o(.text)
    .text                                    0x08015a60   Section        0  datalink.o(.text)
    .text                                    0x08015af0   Section        0  datetime.o(.text)
    is_leap_year                             0x08015af1   Thumb Code    50  datetime.o(.text)
    month_days                               0x08015b23   Thumb Code    54  datetime.o(.text)
    date_is_valid                            0x08015b59   Thumb Code    52  datetime.o(.text)
    days_since_epoch                         0x08015b8d   Thumb Code    90  datetime.o(.text)
    days_since_epoch_into_ymd                0x08015be7   Thumb Code   136  datetime.o(.text)
    day_of_week                              0x08015c6f   Thumb Code    32  datetime.o(.text)
    time_is_valid                            0x08015c8f   Thumb Code    26  datetime.o(.text)
    seconds_since_midnight                   0x08015e29   Thumb Code    28  datetime.o(.text)
    seconds_since_midnight_into_hms          0x08015e45   Thumb Code    60  datetime.o(.text)
    .text                                    0x080160a4   Section        0  dcc.o(.text)
    .text                                    0x08016264   Section        0  bacerror.o(.text)
    .text                                    0x0801634a   Section        0  h_npdu.o(.text)
    .text                                    0x080163ac   Section        0  ao.o(.text)
    .text                                    0x08016864   Section        0  bi.o(.text)
    Binary_Input_Out_Of_Service_Set          0x080169e7   Thumb Code    40  bi.o(.text)
    .text                                    0x08016cf8   Section        0  bo.o(.text)
    .text                                    0x080171f4   Section        0  dlmstp.o(.text)
    dlmstp_encode_unconfirmed_frame          0x080172a9   Thumb Code    36  dlmstp.o(.text)
    MSTP_Send_Frame                          0x080172cd   Thumb Code   258  dlmstp.o(.text)
    MSTP_Receive_Frame_FSM                   0x080173cf   Thumb Code  1142  dlmstp.o(.text)
    MSTP_Master_Node_FSM                     0x08017845   Thumb Code  1838  dlmstp.o(.text)
    .text                                    0x08018148   Section        0  bacnettimer.o(.text)
    .text                                    0x0801815c   Section        0  s_iam.o(.text)
    .text                                    0x08018294   Section        0  abort.o(.text)
    .text                                    0x080182fa   Section        0  rp.o(.text)
    .text                                    0x080185c4   Section        0  noserv.o(.text)
    .text                                    0x08018630   Section        0  reject.o(.text)
    .text                                    0x080186a8   Section        0  fifo.o(.text)
    .text                                    0x08018830   Section        0  s_upt.o(.text)
    .text                                    0x08018894   Section        0  bvlc.o(.text)
    bvlc_encode_bvlc_result                  0x08018895   Thumb Code    36  bvlc.o(.text)
    bvlc_send_result                         0x0801894d   Thumb Code    30  bvlc.o(.text)
    bvlc_encode_register_foreign_device      0x0801896b   Thumb Code    40  bvlc.o(.text)
    .text                                    0x08018a64   Section        0  bacapp.o(.text)
    .text                                    0x0801954c   Section        0  av.o(.text)
    .text                                    0x08019964   Section        0  ai.o(.text)
    .text                                    0x08019c28   Section        0  h_wp.o(.text)
    .text                                    0x08019e48   Section        0  npdu.o(.text)
    .text                                    0x0801a14c   Section        0  iam.o(.text)
    .text                                    0x0801a2c8   Section        0  whois.o(.text)
    .text                                    0x0801a3a4   Section        0  apdu.o(.text)
    apdu_confirmed_dcc_disabled              0x0801a5ab   Thumb Code    36  apdu.o(.text)
    apdu_unconfirmed_dcc_disabled            0x0801a5cf   Thumb Code    38  apdu.o(.text)
    .text                                    0x0801a8a0   Section        0  wp.o(.text)
    .text                                    0x0801aa9c   Section        0  h_rp.o(.text)
    .text                                    0x0801ad34   Section        0  bacstr.o(.text)
    .text                                    0x0801b3a4   Section        0  h_whois.o(.text)
    .text                                    0x0801b404   Section        0  bacnetcrc.o(.text)
    .text                                    0x0801b468   Section        0  bip.o(.text)
    bip_NewConn                              0x0801b469   Thumb Code     6  bip.o(.text)
    bip_decode_bip_address                   0x0801b4e5   Thumb Code    24  bip.o(.text)
    .text                                    0x0801b7cc   Section        0  device.o(.text)
    .text                                    0x0801be58   Section        0  ptransfer.o(.text)
    pt_encode_apdu                           0x0801be59   Thumb Code    96  ptransfer.o(.text)
    .text                                    0x0801c430   Section        0  user_data.o(.text)
    .text                                    0x0801c724   Section        0  rs485.o(.text)
    .text                                    0x0801c7e4   Section        0  vmalloc.o(.text)
    .text                                    0x0801ca14   Section        2  use_no_semi_2.o(.text)
    .text                                    0x0801ca18   Section        0  __2printf.o(.text)
    .text                                    0x0801ca30   Section        0  __2sprintf.o(.text)
    .text                                    0x0801ca5c   Section        0  __2snprintf.o(.text)
    .text                                    0x0801ca94   Section        0  _printf_pad.o(.text)
    .text                                    0x0801cae6   Section        0  _printf_str.o(.text)
    .text                                    0x0801cb38   Section        0  _printf_dec.o(.text)
    .text                                    0x0801cbb0   Section        0  __printf_ss_wp.o(.text)
    .text                                    0x0801cd10   Section        0  __0sscanf.o(.text)
    .text                                    0x0801cd4c   Section        0  _scanf_int.o(.text)
    .text                                    0x0801ce9c   Section        0  strtol.o(.text)
    .text                                    0x0801cf0c   Section        0  strtoul.o(.text)
    .text                                    0x0801cf80   Section        0  rand.o(.text)
    .text                                    0x0801cfbc   Section        0  strchr.o(.text)
    .text                                    0x0801cfd0   Section        0  strstr.o(.text)
    .text                                    0x0801cff4   Section        0  memcmp.o(.text)
    .text                                    0x0801d04c   Section        0  strcpy.o(.text)
    .text                                    0x0801d094   Section        0  strrchr.o(.text)
    .text                                    0x0801d0aa   Section        0  strlen.o(.text)
    .text                                    0x0801d0e8   Section        0  strncmp.o(.text)
    .text                                    0x0801d17e   Section      138  rt_memcpy_v6.o(.text)
    .text                                    0x0801d208   Section      100  rt_memcpy_w.o(.text)
    .text                                    0x0801d26c   Section       16  aeabi_memset.o(.text)
    .text                                    0x0801d27c   Section       68  rt_memclr.o(.text)
    .text                                    0x0801d2c0   Section       78  rt_memclr_w.o(.text)
    .text                                    0x0801d30e   Section       86  strncpy.o(.text)
    .text                                    0x0801d364   Section      128  strcmpv7m.o(.text)
    .text                                    0x0801d3e4   Section        0  heapauxi.o(.text)
    .text                                    0x0801d3ea   Section        2  use_no_semi.o(.text)
    .text                                    0x0801d3ec   Section       16  rt_ctype_table.o(.text)
    .text                                    0x0801d3fc   Section        8  rt_errno_addr_intlibspace.o(.text)
    .text                                    0x0801d404   Section        0  _printf_intcommon.o(.text)
    .text                                    0x0801d4bc   Section        0  _printf_char_common.o(.text)
    _printf_input_char                       0x0801d4bd   Thumb Code    10  _printf_char_common.o(.text)
    .text                                    0x0801d4ec   Section        0  _sputc.o(.text)
    .text                                    0x0801d4f6   Section        0  _snputc.o(.text)
    .text                                    0x0801d506   Section        0  _printf_char.o(.text)
    .text                                    0x0801d534   Section        0  _printf_char_file.o(.text)
    .text                                    0x0801d558   Section        0  _chval.o(.text)
    .text                                    0x0801d574   Section        0  scanf_char.o(.text)
    _scanf_char_input                        0x0801d575   Thumb Code    12  scanf_char.o(.text)
    .text                                    0x0801d5a0   Section        0  _sgetc.o(.text)
    .text                                    0x0801d5e0   Section        0  _strtoul.o(.text)
    .text                                    0x0801d680   Section        0  strtod.o(.text)
    _local_sscanf                            0x0801d681   Thumb Code    60  strtod.o(.text)
    .text                                    0x0801d720   Section        8  libspace.o(.text)
    .text                                    0x0801d728   Section        8  rt_locale_intlibspace.o(.text)
    .text                                    0x0801d730   Section        0  isspace.o(.text)
    .text                                    0x0801d744   Section        0  _scanf.o(.text)
    .text                                    0x0801dab4   Section        0  bigflt0.o(.text)
    .text                                    0x0801db98   Section        0  ferror.o(.text)
    .text                                    0x0801dba0   Section       74  sys_stackheap_outer.o(.text)
    .text                                    0x0801dbec   Section        0  scanf_fp.o(.text)
    _fp_value                                0x0801dbed   Thumb Code   504  scanf_fp.o(.text)
    .text                                    0x0801e090   Section        0  exit.o(.text)
    .text                                    0x0801e09c   Section        0  _rserrno.o(.text)
    .text                                    0x0801e0b4   Section        0  scanf_hexfp.o(.text)
    .text                                    0x0801e3c8   Section        0  scanf_infnan.o(.text)
    .text                                    0x0801e504   Section       38  llshl.o(.text)
    CL$$btod_div_common                      0x0801e52a   Section      824  btod.o(CL$$btod_div_common)
    CL$$btod_e2d                             0x0801e864   Section       84  btod.o(CL$$btod_e2d)
    CL$$btod_e2e                             0x0801e8b8   Section      198  btod.o(CL$$btod_e2e)
    CL$$btod_ediv                            0x0801e97e   Section       40  btod.o(CL$$btod_ediv)
    CL$$btod_edivd                           0x0801e9a6   Section       40  btod.o(CL$$btod_edivd)
    CL$$btod_emul                            0x0801e9ce   Section       40  btod.o(CL$$btod_emul)
    CL$$btod_emuld                           0x0801e9f6   Section       40  btod.o(CL$$btod_emuld)
    CL$$btod_mult_common                     0x0801ea1e   Section      580  btod.o(CL$$btod_mult_common)
    i.__mathlib_dbl_underflow                0x0801ec64   Section        0  dunder.o(i.__mathlib_dbl_underflow)
    i.__mathlib_narrow                       0x0801ec74   Section        0  narrow.o(i.__mathlib_narrow)
    i.__mathlib_tofloat                      0x0801ec84   Section        0  narrow.o(i.__mathlib_tofloat)
    i.__support_ldexp                        0x0801ed0c   Section        0  ldexp.o(i.__support_ldexp)
    i._is_digit                              0x0801ed22   Section        0  __printf_wp.o(i._is_digit)
    i.frexp                                  0x0801ed30   Section        0  frexp.o(i.frexp)
    i.ldexp                                  0x0801ed88   Section        0  ldexp.o(i.ldexp)
    i.strtod                                 0x0801ee06   Section        0  strtod.o(i.strtod)
    locale$$code                             0x0801ee24   Section       44  lc_ctype_c.o(locale$$code)
    locale$$code                             0x0801ee50   Section       44  lc_numeric_c.o(locale$$code)
    x$fpl$d2f                                0x0801ee7c   Section       98  d2f.o(x$fpl$d2f)
    x$fpl$dcheck1                            0x0801eee0   Section       16  dcheck1.o(x$fpl$dcheck1)
    x$fpl$dcmpinf                            0x0801eef0   Section       24  dcmpi.o(x$fpl$dcmpinf)
    x$fpl$deqf                               0x0801ef08   Section      120  deqf.o(x$fpl$deqf)
    x$fpl$dleqf                              0x0801ef80   Section      120  dleqf.o(x$fpl$dleqf)
    x$fpl$dnaninf                            0x0801eff8   Section      156  dnaninf.o(x$fpl$dnaninf)
    x$fpl$drleqf                             0x0801f094   Section      108  drleqf.o(x$fpl$drleqf)
    x$fpl$fcmpinf                            0x0801f100   Section       24  fcmpi.o(x$fpl$fcmpinf)
    x$fpl$fdiv                               0x0801f118   Section      388  fdiv.o(x$fpl$fdiv)
    _fdiv1                                   0x0801f119   Thumb Code     0  fdiv.o(x$fpl$fdiv)
    x$fpl$ffix                               0x0801f29c   Section       54  ffix.o(x$fpl$ffix)
    x$fpl$ffixu                              0x0801f2d4   Section       62  ffixu.o(x$fpl$ffixu)
    x$fpl$fflt                               0x0801f314   Section       48  fflt_clz.o(x$fpl$fflt)
    x$fpl$ffltu                              0x0801f344   Section       38  fflt_clz.o(x$fpl$ffltu)
    x$fpl$fleqf                              0x0801f36c   Section      104  fleqf.o(x$fpl$fleqf)
    x$fpl$fmul                               0x0801f3d4   Section      258  fmul.o(x$fpl$fmul)
    x$fpl$fnaninf                            0x0801f4d6   Section      140  fnaninf.o(x$fpl$fnaninf)
    x$fpl$fretinf                            0x0801f562   Section       10  fretinf.o(x$fpl$fretinf)
    x$fpl$frleqf                             0x0801f56c   Section       98  frleqf.o(x$fpl$frleqf)
    x$fpl$retnan                             0x0801f5ce   Section      100  retnan.o(x$fpl$retnan)
    x$fpl$scalbn                             0x0801f632   Section       92  scalbn.o(x$fpl$scalbn)
    x$fpl$scanf1                             0x0801f68e   Section        4  scanf1.o(x$fpl$scanf1)
    x$fpl$scanf2                             0x0801f692   Section        8  scanf2.o(x$fpl$scanf2)
    x$fpl$trapveneer                         0x0801f69a   Section       48  trapv.o(x$fpl$trapveneer)
    x$fpl$usenofp                            0x0801f6ca   Section        0  usenofp.o(x$fpl$usenofp)
    .constdata                               0x0801f6cc   Section      176  inputs.o(.constdata)
    .constdata                               0x0801f77c   Section        8  uip.o(.constdata)
    all_ones_addr                            0x0801f77c   Data           4  uip.o(.constdata)
    all_zeroes_addr                          0x0801f780   Data           4  uip.o(.constdata)
    .constdata                               0x0801f784   Section       10  uip_arp.o(.constdata)
    broadcast_ethaddr                        0x0801f784   Data           6  uip_arp.o(.constdata)
    broadcast_ipaddr                         0x0801f78a   Data           4  uip_arp.o(.constdata)
    .constdata                               0x0801f78e   Section        8  dhcpc.o(.constdata)
    xid                                      0x0801f78e   Data           4  dhcpc.o(.constdata)
    magic_cookie                             0x0801f792   Data           4  dhcpc.o(.constdata)
    .constdata                               0x0801f796   Section      586  http-strings.o(.constdata)
    .constdata                               0x0801f9e0   Section      205  httpd-cgi.o(.constdata)
    file                                     0x0801f9e0   Data           8  httpd-cgi.o(.constdata)
    tcp                                      0x0801f9e8   Data           8  httpd-cgi.o(.constdata)
    net                                      0x0801f9f0   Data           8  httpd-cgi.o(.constdata)
    closed                                   0x0801f9f8   Data           7  httpd-cgi.o(.constdata)
    syn_rcvd                                 0x0801f9ff   Data           9  httpd-cgi.o(.constdata)
    syn_sent                                 0x0801fa08   Data           9  httpd-cgi.o(.constdata)
    established                              0x0801fa11   Data          12  httpd-cgi.o(.constdata)
    fin_wait_1                               0x0801fa1d   Data          11  httpd-cgi.o(.constdata)
    fin_wait_2                               0x0801fa28   Data          11  httpd-cgi.o(.constdata)
    closing                                  0x0801fa33   Data           8  httpd-cgi.o(.constdata)
    time_wait                                0x0801fa3b   Data          10  httpd-cgi.o(.constdata)
    last_ack                                 0x0801fa45   Data           9  httpd-cgi.o(.constdata)
    .constdata                               0x0801fab0   Section     4828  httpd-fs.o(.constdata)
    data_processes_shtml                     0x0801fab0   Data         226  httpd-fs.o(.constdata)
    data_404_html                            0x0801fb92   Data         171  httpd-fs.o(.constdata)
    data_files_shtml                         0x0801fc3d   Data        1267  httpd-fs.o(.constdata)
    data_footer_html                         0x08020130   Data          31  httpd-fs.o(.constdata)
    data_header_html                         0x0802014f   Data         642  httpd-fs.o(.constdata)
    data_style_css                           0x080203d1   Data        1026  httpd-fs.o(.constdata)
    data_tcp_shtml                           0x080207d3   Data         222  httpd-fs.o(.constdata)
    data_fade_png                            0x080208b1   Data         207  httpd-fs.o(.constdata)
    data_stats_shtml                         0x08020980   Data         835  httpd-fs.o(.constdata)
    .constdata                               0x08020d8c   Section      512  crc.o(.constdata)
    .constdata                               0x08020f8c   Section       42  filter.o(.constdata)
    .constdata                               0x08020fb8   Section       52  datetime.o(.constdata)
    .constdata                               0x08020fec   Section       48  bi.o(.constdata)
    Binary_Input_Properties_Required         0x08020fec   Data          36  bi.o(.constdata)
    Binary_Input_Properties_Optional         0x08021010   Data           8  bi.o(.constdata)
    Binary_Input_Properties_Proprietary      0x08021018   Data           4  bi.o(.constdata)
    .constdata                               0x0802101c   Section       64  bo.o(.constdata)
    Binary_Output_Properties_Required        0x0802101c   Data          44  bo.o(.constdata)
    Binary_Output_Properties_Optional        0x08021048   Data          16  bo.o(.constdata)
    Binary_Output_Properties_Proprietary     0x08021058   Data           4  bo.o(.constdata)
    .constdata                               0x0802105c   Section      832  av.o(.constdata)
    .constdata                               0x0802139c   Section      256  bacstr.o(.constdata)
    trailingBytesForUTF8                     0x0802139c   Data         256  bacstr.o(.constdata)
    .constdata                               0x0802149c   Section       24  vmalloc.o(.constdata)
    .constdata                               0x080214b4   Section      148  bigflt0.o(.constdata)
    tenpwrs_x                                0x080214b4   Data          60  bigflt0.o(.constdata)
    tenpwrs_i                                0x080214f0   Data          64  bigflt0.o(.constdata)
    .conststring                             0x08021548   Section      243  httpd.o(.conststring)
    .conststring                             0x0802163b   Section       37  httpd-cgi.o(.conststring)
    c$$dinf                                  0x08021680   Section        8  fpconst.o(c$$dinf)
    locale$$data                             0x08021688   Section      272  lc_ctype_c.o(locale$$data)
    __lcctype_c_name                         0x0802168c   Data           2  lc_ctype_c.o(locale$$data)
    __lcctype_c_start                        0x08021694   Data           0  lc_ctype_c.o(locale$$data)
    locale$$data                             0x08021798   Section       28  lc_numeric_c.o(locale$$data)
    __lcctype_c_end                          0x08021798   Data           0  lc_ctype_c.o(locale$$data)
    __lcnum_c_name                           0x0802179c   Data           2  lc_numeric_c.o(locale$$data)
    __lcnum_c_start                          0x080217a4   Data           0  lc_numeric_c.o(locale$$data)
    __lcnum_c_point                          0x080217b0   Data           0  lc_numeric_c.o(locale$$data)
    __lcnum_c_thousands                      0x080217b2   Data           0  lc_numeric_c.o(locale$$data)
    __lcnum_c_grouping                       0x080217b3   Data           0  lc_numeric_c.o(locale$$data)
    __lcnum_c_end                            0x080217b4   Data           0  lc_numeric_c.o(locale$$data)
    .data                                    0x20000000   Section       23  main.o(.data)
    table_led_count                          0x20000002   Data           1  main.o(.data)
    periodic_timer                           0x20000004   Data           8  main.o(.data)
    arp_timer                                0x2000000c   Data           8  main.o(.data)
    timer_ok                                 0x20000014   Data           1  main.o(.data)
    .data                                    0x20000018   Section       20  system_stm32f10x.o(.data)
    .data                                    0x2000002c   Section        4  modbus_regop.o(.data)
    .data                                    0x20000030   Section        8  modbus_response.o(.data)
    .data                                    0x20000038   Section       20  stm32f10x_rcc.o(.data)
    APBAHBPrescTable                         0x20000038   Data          16  stm32f10x_rcc.o(.data)
    ADCPrescTable                            0x20000048   Data           4  stm32f10x_rcc.o(.data)
    .data                                    0x2000004c   Section       12  led.o(.data)
    beat_count                               0x20000054   Data           2  led.o(.data)
    i                                        0x20000056   Data           1  led.o(.data)
    led_switch                               0x20000057   Data           1  led.o(.data)
    .data                                    0x20000058   Section        8  timerx.o(.data)
    .data                                    0x20000060   Section        8  enc28j60.o(.data)
    ENC28J60BANK                             0x20000060   Data           1  enc28j60.o(.data)
    NextPacketPtr                            0x20000064   Data           4  enc28j60.o(.data)
    .data                                    0x20000068   Section       45  inputs.o(.data)
    old_ad                                   0x20000068   Data          44  inputs.o(.data)
    channel_count                            0x20000094   Data           1  inputs.o(.data)
    .data                                    0x20000098   Section       60  tasks.o(.data)
    uxTasksDeleted                           0x2000009c   Data           4  tasks.o(.data)
    uxCurrentNumberOfTasks                   0x200000a0   Data           4  tasks.o(.data)
    xTickCount                               0x200000a4   Data           4  tasks.o(.data)
    uxTopUsedPriority                        0x200000a8   Data           4  tasks.o(.data)
    uxTopReadyPriority                       0x200000ac   Data           4  tasks.o(.data)
    xSchedulerRunning                        0x200000b0   Data           4  tasks.o(.data)
    uxSchedulerSuspended                     0x200000b4   Data           4  tasks.o(.data)
    uxMissedTicks                            0x200000b8   Data           4  tasks.o(.data)
    xMissedYield                             0x200000bc   Data           4  tasks.o(.data)
    xNumOfOverflows                          0x200000c0   Data           4  tasks.o(.data)
    uxTaskNumber                             0x200000c4   Data           4  tasks.o(.data)
    xNextTaskUnblockTime                     0x200000c8   Data           4  tasks.o(.data)
    pxDelayedTaskList                        0x200000cc   Data           4  tasks.o(.data)
    pxOverflowDelayedTaskList                0x200000d0   Data           4  tasks.o(.data)
    .data                                    0x200000d4   Section        4  port.o(.data)
    uxCriticalNesting                        0x200000d4   Data           4  port.o(.data)
    .data                                    0x200000d8   Section       24  heap_2.o(.data)
    xFreeBytesRemaining                      0x200000d8   Data           4  heap_2.o(.data)
    xHeapHasBeenInitialised                  0x200000dc   Data           4  heap_2.o(.data)
    xStart                                   0x200000e0   Data           8  heap_2.o(.data)
    xEnd                                     0x200000e8   Data           8  heap_2.o(.data)
    .data                                    0x200000f0   Section        8  usart.o(.data)
    .data                                    0x200000f8   Section        4  delay.o(.data)
    fac_us                                   0x200000f8   Data           1  delay.o(.data)
    fac_ms                                   0x200000fa   Data           2  delay.o(.data)
    .data                                    0x200000fc   Section       60  uip.o(.data)
    ipid                                     0x20000128   Data           2  uip.o(.data)
    iss                                      0x2000012a   Data           4  uip.o(.data)
    lastport                                 0x2000012e   Data           2  uip.o(.data)
    c                                        0x20000134   Data           1  uip.o(.data)
    opt                                      0x20000135   Data           1  uip.o(.data)
    tmp16                                    0x20000136   Data           2  uip.o(.data)
    .data                                    0x20000138   Section        8  uip_arp.o(.data)
    ipaddr                                   0x20000138   Data           4  uip_arp.o(.data)
    i                                        0x2000013c   Data           1  uip_arp.o(.data)
    c                                        0x2000013d   Data           1  uip_arp.o(.data)
    arptime                                  0x2000013e   Data           1  uip_arp.o(.data)
    tmpage                                   0x2000013f   Data           1  uip_arp.o(.data)
    .data                                    0x20000140   Section        1  tcp_client_demo.o(.data)
    .data                                    0x20000144   Section       20  resolv.o(.data)
    resolv_conn                              0x20000144   Data           4  resolv.o(.data)
    i                                        0x20000148   Data           1  resolv.o(.data)
    n                                        0x20000149   Data           1  resolv.o(.data)
    endquery                                 0x2000014a   Data           5  resolv.o(.data)
    nquestions                               0x2000014f   Data           1  resolv.o(.data)
    nanswers                                 0x20000150   Data           1  resolv.o(.data)
    i                                        0x20000151   Data           1  resolv.o(.data)
    i                                        0x20000152   Data           1  resolv.o(.data)
    lseq                                     0x20000153   Data           1  resolv.o(.data)
    lseqi                                    0x20000154   Data           1  resolv.o(.data)
    i                                        0x20000155   Data           1  resolv.o(.data)
    i                                        0x20000156   Data           1  resolv.o(.data)
    seqno                                    0x20000157   Data           1  resolv.o(.data)
    .data                                    0x20000158   Section       12  httpd.o(.data)
    .data                                    0x20000164   Section       52  httpd-cgi.o(.data)
    calls                                    0x20000164   Data          16  httpd-cgi.o(.data)
    states                                   0x20000174   Data          36  httpd-cgi.o(.data)
    .data                                    0x20000198   Section     1673  httpd-fs.o(.data)
    .data                                    0x20000821   Section        3  udp_scan.o(.data)
    .data                                    0x20000824   Section        4  tcp_modbus.o(.data)
    .data                                    0x20000828   Section       17  modbus.o(.data)
    randval                                  0x20000828   Data           1  modbus.o(.data)
    send_count                               0x20000832   Data           2  modbus.o(.data)
    srand_count                              0x20000834   Data           1  modbus.o(.data)
    .data                                    0x20000839   Section        2  crc.o(.data)
    .data                                    0x2000083b   Section        1  filter.o(.data)
    thermistor_type                          0x2000083b   Data           1  filter.o(.data)
    .data                                    0x2000083c   Section        5  dcc.o(.data)
    DCC_Time_Duration_Seconds                0x2000083c   Data           4  dcc.o(.data)
    DCC_Enable_Disable                       0x20000840   Data           1  dcc.o(.data)
    .data                                    0x20000841   Section        2  ao.o(.data)
    Analog_Output_Initialized                0x20000841   Data           1  ao.o(.data)
    Analog_Output_Out_Of_Service             0x20000842   Data           1  ao.o(.data)
    .data                                    0x20000843   Section       21  bi.o(.data)
    initialized                              0x20000843   Data           1  bi.o(.data)
    Out_Of_Service                           0x20000849   Data           5  bi.o(.data)
    Change_Of_Value                          0x2000084e   Data           5  bi.o(.data)
    Polarity                                 0x20000853   Data           5  bi.o(.data)
    .data                                    0x20000858   Section       52  dlmstp.o(.data)
    Nmax_master                              0x20000859   Data           1  dlmstp.o(.data)
    DataCRC                                  0x2000085a   Data           2  dlmstp.o(.data)
    HeaderCRC                                0x2000085c   Data           1  dlmstp.o(.data)
    Index                                    0x2000085e   Data           2  dlmstp.o(.data)
    FrameCount                               0x20000860   Data           1  dlmstp.o(.data)
    Next_Station                             0x20000861   Data           1  dlmstp.o(.data)
    Poll_Station                             0x20000862   Data           1  dlmstp.o(.data)
    RetryCount                               0x20000864   Data           4  dlmstp.o(.data)
    TokenCount                               0x20000868   Data           4  dlmstp.o(.data)
    Receive_State                            0x2000086c   Data           1  dlmstp.o(.data)
    Master_State                             0x2000086d   Data           1  dlmstp.o(.data)
    DataLength                               0x20000874   Data           2  dlmstp.o(.data)
    DestinationAddress                       0x20000876   Data           1  dlmstp.o(.data)
    EventCount                               0x20000877   Data           1  dlmstp.o(.data)
    FrameType                                0x20000878   Data           1  dlmstp.o(.data)
    InputBuffer                              0x2000087c   Data           4  dlmstp.o(.data)
    InputBufferSize                          0x20000880   Data           2  dlmstp.o(.data)
    SourceAddress                            0x20000882   Data           1  dlmstp.o(.data)
    Nmax_info_frames                         0x20000883   Data           1  dlmstp.o(.data)
    TransmitPacketLen                        0x20000884   Data           2  dlmstp.o(.data)
    TransmitPacketDest                       0x20000886   Data           1  dlmstp.o(.data)
    .data                                    0x2000088c   Section        2  bacnettimer.o(.data)
    .data                                    0x2000088e   Section        2  bvlc.o(.data)
    .data                                    0x20000890   Section       12  bacapp.o(.data)
    apdu                                     0x20000890   Data           4  bacapp.o(.data)
    apdu_len_remaining                       0x20000894   Data           4  bacapp.o(.data)
    apdu_len                                 0x20000898   Data           4  bacapp.o(.data)
    .data                                    0x2000089c   Section       56  apdu.o(.data)
    Timeout_Milliseconds                     0x2000089c   Data           2  apdu.o(.data)
    Number_Of_Retries                        0x2000089e   Data           1  apdu.o(.data)
    confirmed_service_supported              0x2000089f   Data          30  apdu.o(.data)
    unconfirmed_service_supported            0x200008bd   Data          11  apdu.o(.data)
    Unrecognized_Service_Handler             0x200008c8   Data           4  apdu.o(.data)
    Abort_Function                           0x200008cc   Data           4  apdu.o(.data)
    Reject_Function                          0x200008d0   Data           4  apdu.o(.data)
    .data                                    0x200008d4   Section        1  h_whois.o(.data)
    .data                                    0x200008d8   Section       38  bip.o(.data)
    BIP_Socket                               0x200008d8   Data           4  bip.o(.data)
    BIP_Port                                 0x200008dc   Data           2  bip.o(.data)
    BIP_Address                              0x200008e4   Data           4  bip.o(.data)
    BIP_Broadcast_Address                    0x200008e8   Data           4  bip.o(.data)
    bip_InterAppId                           0x200008ec   Data           1  bip.o(.data)
    bip_Conns                                0x200008ed   Data           8  bip.o(.data)
    .data                                    0x20000900   Section       24  device.o(.data)
    Object_Instance_Number                   0x20000914   Data           4  device.o(.data)
    .data                                    0x20000918   Section        5  ptransfer.o(.data)
    .data                                    0x20000920   Section      116  user_data.o(.data)
    .data                                    0x20000994   Section       28  vmalloc.o(.data)
    .bss                                     0x200009b0   Section      600  main.o(.bss)
    .bss                                     0x20000c08   Section      132  inputs.o(.bss)
    new_ad                                   0x20000c34   Data          44  inputs.o(.bss)
    .bss                                     0x20000c8c   Section      200  tasks.o(.bss)
    pxReadyTasksLists                        0x20000c8c   Data         100  tasks.o(.bss)
    xDelayedTaskList1                        0x20000cf0   Data          20  tasks.o(.bss)
    xDelayedTaskList2                        0x20000d04   Data          20  tasks.o(.bss)
    xPendingReadyList                        0x20000d18   Data          20  tasks.o(.bss)
    xTasksWaitingTermination                 0x20000d2c   Data          20  tasks.o(.bss)
    xSuspendedTaskList                       0x20000d40   Data          20  tasks.o(.bss)
    .bss                                     0x20000d58   Section    10240  heap_2.o(.bss)
    xHeap                                    0x20000d58   Data       10240  heap_2.o(.bss)
    .bss                                     0x20003558   Section     6472  uip.o(.bss)
    .bss                                     0x20004ea0   Section       96  uip_arp.o(.bss)
    arp_table                                0x20004ea0   Data          96  uip_arp.o(.bss)
    .bss                                     0x20004f00   Section      500  tcp_client_demo.o(.bss)
    .bss                                     0x200050f4   Section       52  dhcpc.o(.bss)
    s                                        0x200050f4   Data          52  dhcpc.o(.bss)
    .bss                                     0x20005128   Section      168  resolv.o(.bss)
    names                                    0x20005128   Data         168  resolv.o(.bss)
    .bss                                     0x200051d0   Section       20  httpd-fs.o(.bss)
    count                                    0x200051d0   Data          20  httpd-fs.o(.bss)
    .bss                                     0x200051e4   Section      410  udp_scan.o(.bss)
    scan_temp                                0x20005252   Data         300  udp_scan.o(.bss)
    .bss                                     0x2000537e   Section     1000  tcp_modbus.o(.bss)
    .bss                                     0x20005768   Section     1680  modbus.o(.bss)
    .bss                                     0x20005df8   Section       44  filter.o(.bss)
    analog_in_buffer                         0x20005df8   Data          44  filter.o(.bss)
    .bss                                     0x20005e24   Section       64  ao.o(.bss)
    text_string                              0x20005e24   Data          32  ao.o(.bss)
    .bss                                     0x20005e64   Section       32  bi.o(.bss)
    text_string                              0x20005e64   Data          32  bi.o(.bss)
    .bss                                     0x20005e84   Section      236  bo.o(.bss)
    text_string                              0x20005e84   Data          32  bo.o(.bss)
    Binary_Output_Out_Of_Service_Array       0x20005f64   Data          12  bo.o(.bss)
    .bss                                     0x20005f70   Section      626  txbuf.o(.bss)
    .bss                                     0x200061e2   Section      500  dlmstp.o(.bss)
    TransmitPacket                           0x200061e2   Data         500  dlmstp.o(.bss)
    .bss                                     0x200063d8   Section       16  bvlc.o(.bss)
    Remote_BBMD                              0x200063d8   Data          16  bvlc.o(.bss)
    .bss                                     0x200063e8   Section      208  av.o(.bss)
    .bss                                     0x200064b8   Section       44  ai.o(.bss)
    .bss                                     0x200064e4   Section      624  h_wp.o(.bss)
    .bss                                     0x20006754   Section      404  apdu.o(.bss)
    Confirmed_Function                       0x20006754   Data         120  apdu.o(.bss)
    Unconfirmed_Function                     0x200067cc   Data          44  apdu.o(.bss)
    Confirmed_ACK_Function                   0x200067f8   Data         120  apdu.o(.bss)
    Error_Function                           0x20006870   Data         120  apdu.o(.bss)
    .bss                                     0x200068e8   Section     1230  bip.o(.bss)
    .bss                                     0x20006db6   Section       20  device.o(.bss)
    Object_Name                              0x20006db6   Data          20  device.o(.bss)
    .bss                                     0x20006dcc   Section     2428  user_data.o(.bss)
    .bss                                     0x20007748   Section       16  rs485.o(.bss)
    .bss                                     0x20007758   Section     1088  vmalloc.o(.bss)
    .bss                                     0x20007b98   Section      228  rand.o(.bss)
    .bss                                     0x20007c7c   Section       96  libspace.o(.bss)
    HEAP                                     0x20007ce0   Section      512  startup_stm32f10x_hd.o(HEAP)
    Heap_Mem                                 0x20007ce0   Data         512  startup_stm32f10x_hd.o(HEAP)
    STACK                                    0x20007ee0   Section     1024  startup_stm32f10x_hd.o(STACK)
    Stack_Mem                                0x20007ee0   Data        1024  startup_stm32f10x_hd.o(STACK)
    __initial_sp                             0x200082e0   Data           0  startup_stm32f10x_hd.o(STACK)
    .ARM.__AT_0x68000000                     0x68000000   Section    204800  vmalloc.o(.ARM.__AT_0x68000000)
    .ARM.__AT_0x68032000                     0x68032000   Section    12800  vmalloc.o(.ARM.__AT_0x68032000)

    Global Symbols

    Symbol Name                              Value     Ov Type        Size  Object(Section)

    BuildAttributes$$THM_ISAv4$P$D$K$B$S$PE$A:L22UL41UL21$X:L11$S22US41US21$IEEE1$IW$USESV6$~STKCKD$USESV7$~SHL$OTIME$ROPI$IEEEX$EBA8$UX$STANDARDLIB$REQ8$PRES8$EABIv2 0x00000000   Number         0  anon$$obj.o ABSOLUTE
    __ARM_use_no_argv                        0x00000000   Number         0  main.o ABSOLUTE
    _printf_flags                            0x00000000   Number         0  printf_stubs.o ABSOLUTE
    _printf_return_value                     0x00000000   Number         0  printf_stubs.o ABSOLUTE
    _printf_sizespec                         0x00000000   Number         0  printf_stubs.o ABSOLUTE
    _printf_widthprec                        0x00000000   Number         0  printf_stubs.o ABSOLUTE
    __ARM_exceptions_init                     - Undefined Weak Reference
    __alloca_initialize                       - Undefined Weak Reference
    __cpp_initialize__aeabi_                  - Undefined Weak Reference
    __cxa_finalize                            - Undefined Weak Reference
    __sigvec_lookup                           - Undefined Weak Reference
    _atexit_init                              - Undefined Weak Reference
    _call_atexit_fns                          - Undefined Weak Reference
    _clock_init                               - Undefined Weak Reference
    _fp_trap_init                             - Undefined Weak Reference
    _fp_trap_shutdown                         - Undefined Weak Reference
    _get_lc_collate                           - Undefined Weak Reference
    _get_lc_monetary                          - Undefined Weak Reference
    _get_lc_time                              - Undefined Weak Reference
    _getenv_init                              - Undefined Weak Reference
    _handle_redirection                       - Undefined Weak Reference
    _init_alloc                               - Undefined Weak Reference
    _init_user_alloc                          - Undefined Weak Reference
    _initio                                   - Undefined Weak Reference
    _mutex_acquire                            - Undefined Weak Reference
    _mutex_release                            - Undefined Weak Reference
    _printf_mbtowc                            - Undefined Weak Reference
    _printf_truncate_signed                   - Undefined Weak Reference
    _printf_truncate_unsigned                 - Undefined Weak Reference
    _scanf_longlong                           - Undefined Weak Reference
    _scanf_mbtowc                             - Undefined Weak Reference
    _scanf_string                             - Undefined Weak Reference
    _scanf_wctomb                             - Undefined Weak Reference
    _scanf_wstring                            - Undefined Weak Reference
    _signal_finish                            - Undefined Weak Reference
    _signal_init                              - Undefined Weak Reference
    _terminate_alloc                          - Undefined Weak Reference
    _terminate_user_alloc                     - Undefined Weak Reference
    _terminateio                              - Undefined Weak Reference
    __Vectors_Size                           0x00000130   Number         0  startup_stm32f10x_hd.o ABSOLUTE
    __Vectors                                0x08008000   Data           4  startup_stm32f10x_hd.o(RESET)
    __Vectors_End                            0x08008130   Data           0  startup_stm32f10x_hd.o(RESET)
    __main                                   0x08008131   Thumb Code     8  __main.o(!!!main)
    __scatterload                            0x08008139   Thumb Code     0  __scatter.o(!!!scatter)
    __scatterload_rt2                        0x08008139   Thumb Code    44  __scatter.o(!!!scatter)
    __scatterload_rt2_thumb_only             0x08008139   Thumb Code     0  __scatter.o(!!!scatter)
    __scatterload_null                       0x08008147   Thumb Code     0  __scatter.o(!!!scatter)
    __decompress                             0x0800816d   Thumb Code   100  __dclz77c.o(!!dclz77c)
    __decompress2                            0x0800816d   Thumb Code     0  __dclz77c.o(!!dclz77c)
    __scatterload_zeroinit                   0x080081d1   Thumb Code    28  __scatter_zi.o(!!handler_zi)
    _printf_d                                0x080081ed   Thumb Code     0  _printf_d.o(.ARM.Collect$$_printf_percent$$00000009)
    _printf_percent                          0x080081ed   Thumb Code     0  _printf_percent.o(.ARM.Collect$$_printf_percent$$00000000)
    _printf_u                                0x080081f3   Thumb Code     0  _printf_u.o(.ARM.Collect$$_printf_percent$$0000000A)
    _printf_c                                0x080081f9   Thumb Code     0  _printf_c.o(.ARM.Collect$$_printf_percent$$00000013)
    _printf_s                                0x080081ff   Thumb Code     0  _printf_s.o(.ARM.Collect$$_printf_percent$$00000014)
    _printf_percent_end                      0x08008205   Thumb Code     0  _printf_percent_end.o(.ARM.Collect$$_printf_percent$$00000017)
    __rt_lib_init                            0x08008209   Thumb Code     0  libinit.o(.ARM.Collect$$libinit$$00000000)
    __rt_lib_init_fp_1                       0x0800820b   Thumb Code     0  libinit2.o(.ARM.Collect$$libinit$$00000002)
    __rt_lib_init_heap_1                     0x0800820b   Thumb Code     0  libinit2.o(.ARM.Collect$$libinit$$00000008)
    __rt_lib_init_rand_2                     0x0800820b   Thumb Code     0  libinit2.o(.ARM.Collect$$libinit$$0000000B)
    __rt_lib_init_user_alloc_1               0x0800820b   Thumb Code     0  libinit2.o(.ARM.Collect$$libinit$$0000000A)
    __rt_lib_init_lc_common                  0x0800820f   Thumb Code     0  libinit2.o(.ARM.Collect$$libinit$$0000000D)
    __rt_lib_init_rand_1                     0x0800820f   Thumb Code     0  libinit2.o(.ARM.Collect$$libinit$$0000000C)
    __rt_lib_init_lc_collate_1               0x08008215   Thumb Code     0  libinit2.o(.ARM.Collect$$libinit$$0000000F)
    __rt_lib_init_lc_ctype_2                 0x08008215   Thumb Code     0  libinit2.o(.ARM.Collect$$libinit$$00000010)
    __rt_lib_init_lc_ctype_1                 0x08008221   Thumb Code     0  libinit2.o(.ARM.Collect$$libinit$$00000011)
    __rt_lib_init_lc_monetary_1              0x08008221   Thumb Code     0  libinit2.o(.ARM.Collect$$libinit$$00000013)
    __rt_lib_init_lc_numeric_2               0x08008221   Thumb Code     0  libinit2.o(.ARM.Collect$$libinit$$00000014)
    __rt_lib_init_alloca_1                   0x0800822b   Thumb Code     0  libinit2.o(.ARM.Collect$$libinit$$0000002C)
    __rt_lib_init_argv_1                     0x0800822b   Thumb Code     0  libinit2.o(.ARM.Collect$$libinit$$0000002A)
    __rt_lib_init_atexit_1                   0x0800822b   Thumb Code     0  libinit2.o(.ARM.Collect$$libinit$$00000019)
    __rt_lib_init_clock_1                    0x0800822b   Thumb Code     0  libinit2.o(.ARM.Collect$$libinit$$0000001F)
    __rt_lib_init_cpp_1                      0x0800822b   Thumb Code     0  libinit2.o(.ARM.Collect$$libinit$$00000030)
    __rt_lib_init_exceptions_1               0x0800822b   Thumb Code     0  libinit2.o(.ARM.Collect$$libinit$$0000002E)
    __rt_lib_init_fp_trap_1                  0x0800822b   Thumb Code     0  libinit2.o(.ARM.Collect$$libinit$$0000001D)
    __rt_lib_init_getenv_1                   0x0800822b   Thumb Code     0  libinit2.o(.ARM.Collect$$libinit$$00000021)
    __rt_lib_init_lc_numeric_1               0x0800822b   Thumb Code     0  libinit2.o(.ARM.Collect$$libinit$$00000015)
    __rt_lib_init_lc_time_1                  0x0800822b   Thumb Code     0  libinit2.o(.ARM.Collect$$libinit$$00000017)
    __rt_lib_init_return                     0x0800822b   Thumb Code     0  libinit2.o(.ARM.Collect$$libinit$$00000031)
    __rt_lib_init_signal_1                   0x0800822b   Thumb Code     0  libinit2.o(.ARM.Collect$$libinit$$0000001B)
    __rt_lib_init_stdio_1                    0x0800822b   Thumb Code     0  libinit2.o(.ARM.Collect$$libinit$$00000023)
    __rt_lib_shutdown                        0x0800822d   Thumb Code     0  libshutdown.o(.ARM.Collect$$libshutdown$$00000000)
    __rt_lib_shutdown_fp_trap_1              0x0800822f   Thumb Code     0  libshutdown2.o(.ARM.Collect$$libshutdown$$00000006)
    __rt_lib_shutdown_heap_1                 0x0800822f   Thumb Code     0  libshutdown2.o(.ARM.Collect$$libshutdown$$0000000E)
    __rt_lib_shutdown_return                 0x0800822f   Thumb Code     0  libshutdown2.o(.ARM.Collect$$libshutdown$$0000000F)
    __rt_lib_shutdown_signal_1               0x0800822f   Thumb Code     0  libshutdown2.o(.ARM.Collect$$libshutdown$$00000009)
    __rt_lib_shutdown_stdio_1                0x0800822f   Thumb Code     0  libshutdown2.o(.ARM.Collect$$libshutdown$$00000003)
    __rt_lib_shutdown_user_alloc_1           0x0800822f   Thumb Code     0  libshutdown2.o(.ARM.Collect$$libshutdown$$0000000B)
    __rt_entry                               0x08008231   Thumb Code     0  rtentry.o(.ARM.Collect$$rtentry$$00000000)
    __rt_entry_presh_1                       0x08008231   Thumb Code     0  rtentry2.o(.ARM.Collect$$rtentry$$00000002)
    __rt_entry_sh                            0x08008231   Thumb Code     0  rtentry4.o(.ARM.Collect$$rtentry$$00000004)
    __rt_entry_li                            0x08008237   Thumb Code     0  rtentry2.o(.ARM.Collect$$rtentry$$0000000A)
    __rt_entry_postsh_1                      0x08008237   Thumb Code     0  rtentry2.o(.ARM.Collect$$rtentry$$00000009)
    __rt_entry_main                          0x0800823b   Thumb Code     0  rtentry2.o(.ARM.Collect$$rtentry$$0000000D)
    __rt_entry_postli_1                      0x0800823b   Thumb Code     0  rtentry2.o(.ARM.Collect$$rtentry$$0000000C)
    __rt_exit                                0x08008243   Thumb Code     0  rtexit.o(.ARM.Collect$$rtexit$$00000000)
    __rt_exit_ls                             0x08008245   Thumb Code     0  rtexit2.o(.ARM.Collect$$rtexit$$00000003)
    __rt_exit_prels_1                        0x08008245   Thumb Code     0  rtexit2.o(.ARM.Collect$$rtexit$$00000002)
    __rt_exit_exit                           0x08008249   Thumb Code     0  rtexit2.o(.ARM.Collect$$rtexit$$00000004)
    vPortSVCHandler                          0x08008251   Thumb Code    28  port.o(.emb_text)
    vPortStartFirstTask                      0x08008271   Thumb Code    16  port.o(.emb_text)
    xPortPendSVHandler                       0x08008285   Thumb Code    56  port.o(.emb_text)
    vPortSetInterruptMask                    0x080082c1   Thumb Code    14  port.o(.emb_text)
    vPortClearInterruptMask                  0x080082cf   Thumb Code    14  port.o(.emb_text)
    rand                                     0x080082dd   Thumb Code    48  rand.o(.emb_text)
    Inital_Bacnet_Server                     0x08008325   Thumb Code    16  main.o(.text)
    uip_polling                              0x0800837d   Thumb Code   234  main.o(.text)
    vSTORE_EEPTask                           0x0800850f   Thumb Code   120  main.o(.text)
    EEP_Dat_Init                             0x080085ad   Thumb Code  3312  main.o(.text)
    main                                     0x0800929d   Thumb Code   238  main.o(.text)
    vUSBTask                                 0x0800938b   Thumb Code    10  main.o(.text)
    NMI_Handler                              0x080093f1   Thumb Code    10  stm32f10x_it.o(.text)
    HardFault_Handler                        0x080093fb   Thumb Code    10  stm32f10x_it.o(.text)
    MemManage_Handler                        0x08009405   Thumb Code    10  stm32f10x_it.o(.text)
    BusFault_Handler                         0x0800940f   Thumb Code    10  stm32f10x_it.o(.text)
    UsageFault_Handler                       0x08009419   Thumb Code    10  stm32f10x_it.o(.text)
    SVC_Handler                              0x08009423   Thumb Code    10  stm32f10x_it.o(.text)
    DebugMon_Handler                         0x0800942d   Thumb Code    10  stm32f10x_it.o(.text)
    PendSV_Handler                           0x08009437   Thumb Code    10  stm32f10x_it.o(.text)
    SysTick_Handler                          0x08009441   Thumb Code    10  stm32f10x_it.o(.text)
    SystemInit                               0x0800958d   Thumb Code    78  system_stm32f10x.o(.text)
    SystemCoreClockUpdate                    0x080095db   Thumb Code   142  system_stm32f10x.o(.text)
    multiple_write_modbus                    0x0800968d   Thumb Code   154  modbus_regop.o(.text)
    write_register_modbus                    0x08009727   Thumb Code  3348  modbus_regop.o(.text)
    response_write_variables                 0x0800a455   Thumb Code   172  modbus_response.o(.text)
    response_multiple_write                  0x0800a501   Thumb Code   196  modbus_response.o(.text)
    response_read_variables                  0x0800a5c5   Thumb Code  3786  modbus_response.o(.text)
    response_checkonline                     0x0800b48f   Thumb Code   386  modbus_response.o(.text)
    NVIC_PriorityGroupConfig                 0x0800b629   Thumb Code    10  misc.o(.text)
    NVIC_Init                                0x0800b633   Thumb Code   102  misc.o(.text)
    NVIC_SetVectorTable                      0x0800b699   Thumb Code    14  misc.o(.text)
    NVIC_SystemLPConfig                      0x0800b6a7   Thumb Code    34  misc.o(.text)
    SysTick_CLKSourceConfig                  0x0800b6c9   Thumb Code    40  misc.o(.text)
    ADC_DeInit                               0x0800b705   Thumb Code    78  stm32f10x_adc.o(.text)
    ADC_Init                                 0x0800b753   Thumb Code    70  stm32f10x_adc.o(.text)
    ADC_StructInit                           0x0800b799   Thumb Code    18  stm32f10x_adc.o(.text)
    ADC_Cmd                                  0x0800b7ab   Thumb Code    22  stm32f10x_adc.o(.text)
    ADC_DMACmd                               0x0800b7c1   Thumb Code    22  stm32f10x_adc.o(.text)
    ADC_ITConfig                             0x0800b7d7   Thumb Code    24  stm32f10x_adc.o(.text)
    ADC_ResetCalibration                     0x0800b7ef   Thumb Code    10  stm32f10x_adc.o(.text)
    ADC_GetResetCalibrationStatus            0x0800b7f9   Thumb Code    20  stm32f10x_adc.o(.text)
    ADC_StartCalibration                     0x0800b80d   Thumb Code    10  stm32f10x_adc.o(.text)
    ADC_GetCalibrationStatus                 0x0800b817   Thumb Code    20  stm32f10x_adc.o(.text)
    ADC_SoftwareStartConvCmd                 0x0800b82b   Thumb Code    22  stm32f10x_adc.o(.text)
    ADC_GetSoftwareStartConvStatus           0x0800b841   Thumb Code    20  stm32f10x_adc.o(.text)
    ADC_DiscModeChannelCountConfig           0x0800b855   Thumb Code    24  stm32f10x_adc.o(.text)
    ADC_DiscModeCmd                          0x0800b86d   Thumb Code    22  stm32f10x_adc.o(.text)
    ADC_RegularChannelConfig                 0x0800b883   Thumb Code   184  stm32f10x_adc.o(.text)
    ADC_ExternalTrigConvCmd                  0x0800b93b   Thumb Code    22  stm32f10x_adc.o(.text)
    ADC_GetConversionValue                   0x0800b951   Thumb Code     8  stm32f10x_adc.o(.text)
    ADC_GetDualModeConversionValue           0x0800b959   Thumb Code     8  stm32f10x_adc.o(.text)
    ADC_AutoInjectedConvCmd                  0x0800b961   Thumb Code    22  stm32f10x_adc.o(.text)
    ADC_InjectedDiscModeCmd                  0x0800b977   Thumb Code    22  stm32f10x_adc.o(.text)
    ADC_ExternalTrigInjectedConvConfig       0x0800b98d   Thumb Code    16  stm32f10x_adc.o(.text)
    ADC_ExternalTrigInjectedConvCmd          0x0800b99d   Thumb Code    22  stm32f10x_adc.o(.text)
    ADC_SoftwareStartInjectedConvCmd         0x0800b9b3   Thumb Code    22  stm32f10x_adc.o(.text)
    ADC_GetSoftwareStartInjectedConvCmdStatus 0x0800b9c9   Thumb Code    20  stm32f10x_adc.o(.text)
    ADC_InjectedChannelConfig                0x0800b9dd   Thumb Code   130  stm32f10x_adc.o(.text)
    ADC_InjectedSequencerLengthConfig        0x0800ba5f   Thumb Code    24  stm32f10x_adc.o(.text)
    ADC_SetInjectedOffset                    0x0800ba77   Thumb Code    20  stm32f10x_adc.o(.text)
    ADC_GetInjectedConversionValue           0x0800ba8b   Thumb Code    28  stm32f10x_adc.o(.text)
    ADC_AnalogWatchdogCmd                    0x0800baa7   Thumb Code    16  stm32f10x_adc.o(.text)
    ADC_AnalogWatchdogThresholdsConfig       0x0800bab7   Thumb Code     6  stm32f10x_adc.o(.text)
    ADC_AnalogWatchdogSingleChannelConfig    0x0800babd   Thumb Code    16  stm32f10x_adc.o(.text)
    ADC_TempSensorVrefintCmd                 0x0800bacd   Thumb Code    64  stm32f10x_adc.o(.text)
    ADC_GetFlagStatus                        0x0800bb0d   Thumb Code    18  stm32f10x_adc.o(.text)
    ADC_ClearFlag                            0x0800bb1f   Thumb Code     6  stm32f10x_adc.o(.text)
    ADC_GetITStatus                          0x0800bb25   Thumb Code    36  stm32f10x_adc.o(.text)
    ADC_ClearITPendingBit                    0x0800bb49   Thumb Code    10  stm32f10x_adc.o(.text)
    EXTI_DeInit                              0x0800bb55   Thumb Code    28  stm32f10x_exti.o(.text)
    EXTI_Init                                0x0800bb71   Thumb Code   142  stm32f10x_exti.o(.text)
    EXTI_StructInit                          0x0800bbff   Thumb Code    16  stm32f10x_exti.o(.text)
    EXTI_GenerateSWInterrupt                 0x0800bc0f   Thumb Code    16  stm32f10x_exti.o(.text)
    EXTI_GetFlagStatus                       0x0800bc1f   Thumb Code    22  stm32f10x_exti.o(.text)
    EXTI_ClearFlag                           0x0800bc35   Thumb Code     8  stm32f10x_exti.o(.text)
    EXTI_GetITStatus                         0x0800bc3d   Thumb Code    34  stm32f10x_exti.o(.text)
    EXTI_ClearITPendingBit                   0x0800bc5f   Thumb Code     8  stm32f10x_exti.o(.text)
    GPIO_DeInit                              0x0800bc71   Thumb Code   172  stm32f10x_gpio.o(.text)
    GPIO_AFIODeInit                          0x0800bd1d   Thumb Code    20  stm32f10x_gpio.o(.text)
    GPIO_Init                                0x0800bd31   Thumb Code   274  stm32f10x_gpio.o(.text)
    GPIO_StructInit                          0x0800be43   Thumb Code    16  stm32f10x_gpio.o(.text)
    GPIO_ReadInputDataBit                    0x0800be53   Thumb Code    18  stm32f10x_gpio.o(.text)
    GPIO_ReadInputData                       0x0800be65   Thumb Code     8  stm32f10x_gpio.o(.text)
    GPIO_ReadOutputDataBit                   0x0800be6d   Thumb Code    18  stm32f10x_gpio.o(.text)
    GPIO_ReadOutputData                      0x0800be7f   Thumb Code     8  stm32f10x_gpio.o(.text)
    GPIO_SetBits                             0x0800be87   Thumb Code     4  stm32f10x_gpio.o(.text)
    GPIO_ResetBits                           0x0800be8b   Thumb Code     4  stm32f10x_gpio.o(.text)
    GPIO_WriteBit                            0x0800be8f   Thumb Code    10  stm32f10x_gpio.o(.text)
    GPIO_Write                               0x0800be99   Thumb Code     4  stm32f10x_gpio.o(.text)
    GPIO_PinLockConfig                       0x0800be9d   Thumb Code    18  stm32f10x_gpio.o(.text)
    GPIO_EventOutputConfig                   0x0800beaf   Thumb Code    26  stm32f10x_gpio.o(.text)
    GPIO_EventOutputCmd                      0x0800bec9   Thumb Code     6  stm32f10x_gpio.o(.text)
    GPIO_PinRemapConfig                      0x0800becf   Thumb Code   138  stm32f10x_gpio.o(.text)
    GPIO_EXTILineConfig                      0x0800bf59   Thumb Code    66  stm32f10x_gpio.o(.text)
    GPIO_ETH_MediaInterfaceConfig            0x0800bf9b   Thumb Code     6  stm32f10x_gpio.o(.text)
    RCC_DeInit                               0x0800bfc9   Thumb Code    64  stm32f10x_rcc.o(.text)
    RCC_HSEConfig                            0x0800c009   Thumb Code    70  stm32f10x_rcc.o(.text)
    RCC_GetFlagStatus                        0x0800c04f   Thumb Code    56  stm32f10x_rcc.o(.text)
    RCC_WaitForHSEStartUp                    0x0800c087   Thumb Code    56  stm32f10x_rcc.o(.text)
    RCC_AdjustHSICalibrationValue            0x0800c0bf   Thumb Code    20  stm32f10x_rcc.o(.text)
    RCC_HSICmd                               0x0800c0d3   Thumb Code     6  stm32f10x_rcc.o(.text)
    RCC_PLLConfig                            0x0800c0d9   Thumb Code    24  stm32f10x_rcc.o(.text)
    RCC_PLLCmd                               0x0800c0f1   Thumb Code     6  stm32f10x_rcc.o(.text)
    RCC_SYSCLKConfig                         0x0800c0f7   Thumb Code    18  stm32f10x_rcc.o(.text)
    RCC_GetSYSCLKSource                      0x0800c109   Thumb Code    10  stm32f10x_rcc.o(.text)
    RCC_HCLKConfig                           0x0800c113   Thumb Code    18  stm32f10x_rcc.o(.text)
    RCC_PCLK1Config                          0x0800c125   Thumb Code    18  stm32f10x_rcc.o(.text)
    RCC_PCLK2Config                          0x0800c137   Thumb Code    20  stm32f10x_rcc.o(.text)
    RCC_ITConfig                             0x0800c14b   Thumb Code    26  stm32f10x_rcc.o(.text)
    RCC_USBCLKConfig                         0x0800c165   Thumb Code     6  stm32f10x_rcc.o(.text)
    RCC_ADCCLKConfig                         0x0800c16b   Thumb Code    18  stm32f10x_rcc.o(.text)
    RCC_LSEConfig                            0x0800c17d   Thumb Code    44  stm32f10x_rcc.o(.text)
    RCC_LSICmd                               0x0800c1a9   Thumb Code     6  stm32f10x_rcc.o(.text)
    RCC_RTCCLKConfig                         0x0800c1af   Thumb Code    12  stm32f10x_rcc.o(.text)
    RCC_RTCCLKCmd                            0x0800c1bb   Thumb Code     8  stm32f10x_rcc.o(.text)
    RCC_GetClocksFreq                        0x0800c1c3   Thumb Code   192  stm32f10x_rcc.o(.text)
    RCC_AHBPeriphClockCmd                    0x0800c283   Thumb Code    26  stm32f10x_rcc.o(.text)
    RCC_APB2PeriphClockCmd                   0x0800c29d   Thumb Code    26  stm32f10x_rcc.o(.text)
    RCC_APB1PeriphClockCmd                   0x0800c2b7   Thumb Code    26  stm32f10x_rcc.o(.text)
    RCC_APB2PeriphResetCmd                   0x0800c2d1   Thumb Code    26  stm32f10x_rcc.o(.text)
    RCC_APB1PeriphResetCmd                   0x0800c2eb   Thumb Code    26  stm32f10x_rcc.o(.text)
    RCC_BackupResetCmd                       0x0800c305   Thumb Code     8  stm32f10x_rcc.o(.text)
    RCC_ClockSecuritySystemCmd               0x0800c30d   Thumb Code     6  stm32f10x_rcc.o(.text)
    RCC_MCOConfig                            0x0800c313   Thumb Code     6  stm32f10x_rcc.o(.text)
    RCC_ClearFlag                            0x0800c319   Thumb Code    14  stm32f10x_rcc.o(.text)
    RCC_GetITStatus                          0x0800c327   Thumb Code    20  stm32f10x_rcc.o(.text)
    RCC_ClearITPendingBit                    0x0800c33b   Thumb Code     6  stm32f10x_rcc.o(.text)
    SPI_I2S_DeInit                           0x0800c36d   Thumb Code    76  stm32f10x_spi.o(.text)
    SPI_Init                                 0x0800c3b9   Thumb Code    60  stm32f10x_spi.o(.text)
    I2S_Init                                 0x0800c3f5   Thumb Code   226  stm32f10x_spi.o(.text)
    SPI_StructInit                           0x0800c4d7   Thumb Code    24  stm32f10x_spi.o(.text)
    I2S_StructInit                           0x0800c4ef   Thumb Code    20  stm32f10x_spi.o(.text)
    SPI_Cmd                                  0x0800c503   Thumb Code    24  stm32f10x_spi.o(.text)
    I2S_Cmd                                  0x0800c51b   Thumb Code    24  stm32f10x_spi.o(.text)
    SPI_I2S_ITConfig                         0x0800c533   Thumb Code    32  stm32f10x_spi.o(.text)
    SPI_I2S_DMACmd                           0x0800c553   Thumb Code    18  stm32f10x_spi.o(.text)
    SPI_I2S_SendData                         0x0800c565   Thumb Code     4  stm32f10x_spi.o(.text)
    SPI_I2S_ReceiveData                      0x0800c569   Thumb Code     6  stm32f10x_spi.o(.text)
    SPI_NSSInternalSoftwareConfig            0x0800c56f   Thumb Code    30  stm32f10x_spi.o(.text)
    SPI_SSOutputCmd                          0x0800c58d   Thumb Code    24  stm32f10x_spi.o(.text)
    SPI_DataSizeConfig                       0x0800c5a5   Thumb Code    18  stm32f10x_spi.o(.text)
    SPI_TransmitCRC                          0x0800c5b7   Thumb Code    10  stm32f10x_spi.o(.text)
    SPI_CalculateCRC                         0x0800c5c1   Thumb Code    24  stm32f10x_spi.o(.text)
    SPI_GetCRC                               0x0800c5d9   Thumb Code    16  stm32f10x_spi.o(.text)
    SPI_GetCRCPolynomial                     0x0800c5e9   Thumb Code     6  stm32f10x_spi.o(.text)
    SPI_BiDirectionalLineConfig              0x0800c5ef   Thumb Code    28  stm32f10x_spi.o(.text)
    SPI_I2S_GetFlagStatus                    0x0800c60b   Thumb Code    18  stm32f10x_spi.o(.text)
    SPI_I2S_ClearFlag                        0x0800c61d   Thumb Code     6  stm32f10x_spi.o(.text)
    SPI_I2S_GetITStatus                      0x0800c623   Thumb Code    52  stm32f10x_spi.o(.text)
    SPI_I2S_ClearITPendingBit                0x0800c657   Thumb Code    20  stm32f10x_spi.o(.text)
    TIM_DeInit                               0x0800c679   Thumb Code   424  stm32f10x_tim.o(.text)
    TIM_TimeBaseInit                         0x0800c821   Thumb Code   122  stm32f10x_tim.o(.text)
    TIM_OC1Init                              0x0800c89b   Thumb Code   132  stm32f10x_tim.o(.text)
    TIM_OC2Init                              0x0800c91f   Thumb Code   154  stm32f10x_tim.o(.text)
    TIM_OC3Init                              0x0800c9b9   Thumb Code   150  stm32f10x_tim.o(.text)
    TIM_OC4Init                              0x0800ca4f   Thumb Code   182  stm32f10x_tim.o(.text)
    TIM_SetIC4Prescaler                      0x0800cb05   Thumb Code    26  stm32f10x_tim.o(.text)
    TIM_SetIC3Prescaler                      0x0800cba1   Thumb Code    18  stm32f10x_tim.o(.text)
    TIM_SetIC2Prescaler                      0x0800cc2d   Thumb Code    26  stm32f10x_tim.o(.text)
    TIM_SetIC1Prescaler                      0x0800ccc9   Thumb Code    18  stm32f10x_tim.o(.text)
    TIM_ICInit                               0x0800cd47   Thumb Code   150  stm32f10x_tim.o(.text)
    TIM_PWMIConfig                           0x0800cddd   Thumb Code   124  stm32f10x_tim.o(.text)
    TIM_BDTRConfig                           0x0800ce59   Thumb Code    32  stm32f10x_tim.o(.text)
    TIM_TimeBaseStructInit                   0x0800ce79   Thumb Code    18  stm32f10x_tim.o(.text)
    TIM_OCStructInit                         0x0800ce8b   Thumb Code    20  stm32f10x_tim.o(.text)
    TIM_ICStructInit                         0x0800ce9f   Thumb Code    18  stm32f10x_tim.o(.text)
    TIM_BDTRStructInit                       0x0800ceb1   Thumb Code    40  stm32f10x_tim.o(.text)
    TIM_Cmd                                  0x0800ced9   Thumb Code    24  stm32f10x_tim.o(.text)
    TIM_CtrlPWMOutputs                       0x0800cef1   Thumb Code    30  stm32f10x_tim.o(.text)
    TIM_ITConfig                             0x0800cf0f   Thumb Code    18  stm32f10x_tim.o(.text)
    TIM_GenerateEvent                        0x0800cf21   Thumb Code     4  stm32f10x_tim.o(.text)
    TIM_DMAConfig                            0x0800cf25   Thumb Code    10  stm32f10x_tim.o(.text)
    TIM_DMACmd                               0x0800cf2f   Thumb Code    18  stm32f10x_tim.o(.text)
    TIM_InternalClockConfig                  0x0800cf41   Thumb Code    12  stm32f10x_tim.o(.text)
    TIM_SelectInputTrigger                   0x0800cf4d   Thumb Code    18  stm32f10x_tim.o(.text)
    TIM_ITRxExternalClockConfig              0x0800cf5f   Thumb Code    24  stm32f10x_tim.o(.text)
    TIM_TIxExternalClockConfig               0x0800cf77   Thumb Code    62  stm32f10x_tim.o(.text)
    TIM_ETRConfig                            0x0800cfb5   Thumb Code    28  stm32f10x_tim.o(.text)
    TIM_ETRClockMode1Config                  0x0800cfd1   Thumb Code    54  stm32f10x_tim.o(.text)
    TIM_ETRClockMode2Config                  0x0800d007   Thumb Code    32  stm32f10x_tim.o(.text)
    TIM_PrescalerConfig                      0x0800d027   Thumb Code     6  stm32f10x_tim.o(.text)
    TIM_CounterModeConfig                    0x0800d02d   Thumb Code    18  stm32f10x_tim.o(.text)
    TIM_EncoderInterfaceConfig               0x0800d03f   Thumb Code    66  stm32f10x_tim.o(.text)
    TIM_ForcedOC1Config                      0x0800d081   Thumb Code    18  stm32f10x_tim.o(.text)
    TIM_ForcedOC2Config                      0x0800d093   Thumb Code    26  stm32f10x_tim.o(.text)
    TIM_ForcedOC3Config                      0x0800d0ad   Thumb Code    18  stm32f10x_tim.o(.text)
    TIM_ForcedOC4Config                      0x0800d0bf   Thumb Code    26  stm32f10x_tim.o(.text)
    TIM_ARRPreloadConfig                     0x0800d0d9   Thumb Code    24  stm32f10x_tim.o(.text)
    TIM_SelectCOM                            0x0800d0f1   Thumb Code    24  stm32f10x_tim.o(.text)
    TIM_SelectCCDMA                          0x0800d109   Thumb Code    24  stm32f10x_tim.o(.text)
    TIM_CCPreloadControl                     0x0800d121   Thumb Code    24  stm32f10x_tim.o(.text)
    TIM_OC1PreloadConfig                     0x0800d139   Thumb Code    18  stm32f10x_tim.o(.text)
    TIM_OC2PreloadConfig                     0x0800d14b   Thumb Code    26  stm32f10x_tim.o(.text)
    TIM_OC3PreloadConfig                     0x0800d165   Thumb Code    18  stm32f10x_tim.o(.text)
    TIM_OC4PreloadConfig                     0x0800d177   Thumb Code    26  stm32f10x_tim.o(.text)
    TIM_OC1FastConfig                        0x0800d191   Thumb Code    18  stm32f10x_tim.o(.text)
    TIM_OC2FastConfig                        0x0800d1a3   Thumb Code    26  stm32f10x_tim.o(.text)
    TIM_OC3FastConfig                        0x0800d1bd   Thumb Code    18  stm32f10x_tim.o(.text)
    TIM_OC4FastConfig                        0x0800d1cf   Thumb Code    26  stm32f10x_tim.o(.text)
    TIM_ClearOC1Ref                          0x0800d1e9   Thumb Code    18  stm32f10x_tim.o(.text)
    TIM_ClearOC2Ref                          0x0800d1fb   Thumb Code    24  stm32f10x_tim.o(.text)
    TIM_ClearOC3Ref                          0x0800d213   Thumb Code    18  stm32f10x_tim.o(.text)
    TIM_ClearOC4Ref                          0x0800d225   Thumb Code    24  stm32f10x_tim.o(.text)
    TIM_OC1PolarityConfig                    0x0800d23d   Thumb Code    18  stm32f10x_tim.o(.text)
    TIM_OC1NPolarityConfig                   0x0800d24f   Thumb Code    18  stm32f10x_tim.o(.text)
    TIM_OC2PolarityConfig                    0x0800d261   Thumb Code    26  stm32f10x_tim.o(.text)
    TIM_OC2NPolarityConfig                   0x0800d27b   Thumb Code    26  stm32f10x_tim.o(.text)
    TIM_OC3PolarityConfig                    0x0800d295   Thumb Code    26  stm32f10x_tim.o(.text)
    TIM_OC3NPolarityConfig                   0x0800d2af   Thumb Code    26  stm32f10x_tim.o(.text)
    TIM_OC4PolarityConfig                    0x0800d2c9   Thumb Code    26  stm32f10x_tim.o(.text)
    TIM_CCxCmd                               0x0800d2e3   Thumb Code    30  stm32f10x_tim.o(.text)
    TIM_CCxNCmd                              0x0800d301   Thumb Code    30  stm32f10x_tim.o(.text)
    TIM_SelectOCxM                           0x0800d31f   Thumb Code    82  stm32f10x_tim.o(.text)
    TIM_UpdateDisableConfig                  0x0800d371   Thumb Code    24  stm32f10x_tim.o(.text)
    TIM_UpdateRequestConfig                  0x0800d389   Thumb Code    24  stm32f10x_tim.o(.text)
    TIM_SelectHallSensor                     0x0800d3a1   Thumb Code    24  stm32f10x_tim.o(.text)
    TIM_SelectOnePulseMode                   0x0800d3b9   Thumb Code    18  stm32f10x_tim.o(.text)
    TIM_SelectOutputTrigger                  0x0800d3cb   Thumb Code    18  stm32f10x_tim.o(.text)
    TIM_SelectSlaveMode                      0x0800d3dd   Thumb Code    18  stm32f10x_tim.o(.text)
    TIM_SelectMasterSlaveMode                0x0800d3ef   Thumb Code    18  stm32f10x_tim.o(.text)
    TIM_SetCounter                           0x0800d401   Thumb Code     4  stm32f10x_tim.o(.text)
    TIM_SetAutoreload                        0x0800d405   Thumb Code     4  stm32f10x_tim.o(.text)
    TIM_SetCompare1                          0x0800d409   Thumb Code     4  stm32f10x_tim.o(.text)
    TIM_SetCompare2                          0x0800d40d   Thumb Code     4  stm32f10x_tim.o(.text)
    TIM_SetCompare3                          0x0800d411   Thumb Code     4  stm32f10x_tim.o(.text)
    TIM_SetCompare4                          0x0800d415   Thumb Code     6  stm32f10x_tim.o(.text)
    TIM_SetClockDivision                     0x0800d41b   Thumb Code    18  stm32f10x_tim.o(.text)
    TIM_GetCapture1                          0x0800d42d   Thumb Code     6  stm32f10x_tim.o(.text)
    TIM_GetCapture2                          0x0800d433   Thumb Code     6  stm32f10x_tim.o(.text)
    TIM_GetCapture3                          0x0800d439   Thumb Code     6  stm32f10x_tim.o(.text)
    TIM_GetCapture4                          0x0800d43f   Thumb Code     8  stm32f10x_tim.o(.text)
    TIM_GetCounter                           0x0800d447   Thumb Code     6  stm32f10x_tim.o(.text)
    TIM_GetPrescaler                         0x0800d44d   Thumb Code     6  stm32f10x_tim.o(.text)
    TIM_GetFlagStatus                        0x0800d453   Thumb Code    18  stm32f10x_tim.o(.text)
    TIM_ClearFlag                            0x0800d465   Thumb Code     6  stm32f10x_tim.o(.text)
    TIM_GetITStatus                          0x0800d46b   Thumb Code    34  stm32f10x_tim.o(.text)
    TIM_ClearITPendingBit                    0x0800d48d   Thumb Code     6  stm32f10x_tim.o(.text)
    USART_DeInit                             0x0800d495   Thumb Code   134  stm32f10x_usart.o(.text)
    USART_Init                               0x0800d51b   Thumb Code   210  stm32f10x_usart.o(.text)
    USART_StructInit                         0x0800d5ed   Thumb Code    24  stm32f10x_usart.o(.text)
    USART_ClockInit                          0x0800d605   Thumb Code    34  stm32f10x_usart.o(.text)
    USART_ClockStructInit                    0x0800d627   Thumb Code    12  stm32f10x_usart.o(.text)
    USART_Cmd                                0x0800d633   Thumb Code    24  stm32f10x_usart.o(.text)
    USART_ITConfig                           0x0800d64b   Thumb Code    74  stm32f10x_usart.o(.text)
    USART_DMACmd                             0x0800d695   Thumb Code    18  stm32f10x_usart.o(.text)
    USART_SetAddress                         0x0800d6a7   Thumb Code    18  stm32f10x_usart.o(.text)
    USART_WakeUpConfig                       0x0800d6b9   Thumb Code    18  stm32f10x_usart.o(.text)
    USART_ReceiverWakeUpCmd                  0x0800d6cb   Thumb Code    24  stm32f10x_usart.o(.text)
    USART_LINBreakDetectLengthConfig         0x0800d6e3   Thumb Code    18  stm32f10x_usart.o(.text)
    USART_LINCmd                             0x0800d6f5   Thumb Code    24  stm32f10x_usart.o(.text)
    USART_SendData                           0x0800d70d   Thumb Code     8  stm32f10x_usart.o(.text)
    USART_ReceiveData                        0x0800d715   Thumb Code    10  stm32f10x_usart.o(.text)
    USART_SendBreak                          0x0800d71f   Thumb Code    10  stm32f10x_usart.o(.text)
    USART_SetGuardTime                       0x0800d729   Thumb Code    16  stm32f10x_usart.o(.text)
    USART_SetPrescaler                       0x0800d739   Thumb Code    16  stm32f10x_usart.o(.text)
    USART_SmartCardCmd                       0x0800d749   Thumb Code    24  stm32f10x_usart.o(.text)
    USART_SmartCardNACKCmd                   0x0800d761   Thumb Code    24  stm32f10x_usart.o(.text)
    USART_HalfDuplexCmd                      0x0800d779   Thumb Code    24  stm32f10x_usart.o(.text)
    USART_OverSampling8Cmd                   0x0800d791   Thumb Code    22  stm32f10x_usart.o(.text)
    USART_OneBitMethodCmd                    0x0800d7a7   Thumb Code    24  stm32f10x_usart.o(.text)
    USART_IrDAConfig                         0x0800d7bf   Thumb Code    18  stm32f10x_usart.o(.text)
    USART_IrDACmd                            0x0800d7d1   Thumb Code    24  stm32f10x_usart.o(.text)
    USART_GetFlagStatus                      0x0800d7e9   Thumb Code    26  stm32f10x_usart.o(.text)
    USART_ClearFlag                          0x0800d803   Thumb Code    18  stm32f10x_usart.o(.text)
    USART_GetITStatus                        0x0800d815   Thumb Code    84  stm32f10x_usart.o(.text)
    USART_ClearITPendingBit                  0x0800d869   Thumb Code    52  stm32f10x_usart.o(.text)
    Reset_Handler                            0x0800d89d   Thumb Code     8  startup_stm32f10x_hd.o(.text)
    ADC1_2_IRQHandler                        0x0800d8b7   Thumb Code     0  startup_stm32f10x_hd.o(.text)
    ADC3_IRQHandler                          0x0800d8b7   Thumb Code     0  startup_stm32f10x_hd.o(.text)
    CAN1_RX1_IRQHandler                      0x0800d8b7   Thumb Code     0  startup_stm32f10x_hd.o(.text)
    CAN1_SCE_IRQHandler                      0x0800d8b7   Thumb Code     0  startup_stm32f10x_hd.o(.text)
    DMA1_Channel1_IRQHandler                 0x0800d8b7   Thumb Code     0  startup_stm32f10x_hd.o(.text)
    DMA1_Channel2_IRQHandler                 0x0800d8b7   Thumb Code     0  startup_stm32f10x_hd.o(.text)
    DMA1_Channel3_IRQHandler                 0x0800d8b7   Thumb Code     0  startup_stm32f10x_hd.o(.text)
    DMA1_Channel4_IRQHandler                 0x0800d8b7   Thumb Code     0  startup_stm32f10x_hd.o(.text)
    DMA1_Channel5_IRQHandler                 0x0800d8b7   Thumb Code     0  startup_stm32f10x_hd.o(.text)
    DMA1_Channel6_IRQHandler                 0x0800d8b7   Thumb Code     0  startup_stm32f10x_hd.o(.text)
    DMA1_Channel7_IRQHandler                 0x0800d8b7   Thumb Code     0  startup_stm32f10x_hd.o(.text)
    DMA2_Channel1_IRQHandler                 0x0800d8b7   Thumb Code     0  startup_stm32f10x_hd.o(.text)
    DMA2_Channel2_IRQHandler                 0x0800d8b7   Thumb Code     0  startup_stm32f10x_hd.o(.text)
    DMA2_Channel3_IRQHandler                 0x0800d8b7   Thumb Code     0  startup_stm32f10x_hd.o(.text)
    DMA2_Channel4_5_IRQHandler               0x0800d8b7   Thumb Code     0  startup_stm32f10x_hd.o(.text)
    EXTI4_IRQHandler                         0x0800d8b7   Thumb Code     0  startup_stm32f10x_hd.o(.text)
    FLASH_IRQHandler                         0x0800d8b7   Thumb Code     0  startup_stm32f10x_hd.o(.text)
    FSMC_IRQHandler                          0x0800d8b7   Thumb Code     0  startup_stm32f10x_hd.o(.text)
    I2C1_ER_IRQHandler                       0x0800d8b7   Thumb Code     0  startup_stm32f10x_hd.o(.text)
    I2C1_EV_IRQHandler                       0x0800d8b7   Thumb Code     0  startup_stm32f10x_hd.o(.text)
    I2C2_ER_IRQHandler                       0x0800d8b7   Thumb Code     0  startup_stm32f10x_hd.o(.text)
    I2C2_EV_IRQHandler                       0x0800d8b7   Thumb Code     0  startup_stm32f10x_hd.o(.text)
    PVD_IRQHandler                           0x0800d8b7   Thumb Code     0  startup_stm32f10x_hd.o(.text)
    RCC_IRQHandler                           0x0800d8b7   Thumb Code     0  startup_stm32f10x_hd.o(.text)
    RTCAlarm_IRQHandler                      0x0800d8b7   Thumb Code     0  startup_stm32f10x_hd.o(.text)
    RTC_IRQHandler                           0x0800d8b7   Thumb Code     0  startup_stm32f10x_hd.o(.text)
    SDIO_IRQHandler                          0x0800d8b7   Thumb Code     0  startup_stm32f10x_hd.o(.text)
    SPI1_IRQHandler                          0x0800d8b7   Thumb Code     0  startup_stm32f10x_hd.o(.text)
    SPI2_IRQHandler                          0x0800d8b7   Thumb Code     0  startup_stm32f10x_hd.o(.text)
    SPI3_IRQHandler                          0x0800d8b7   Thumb Code     0  startup_stm32f10x_hd.o(.text)
    TAMPER_IRQHandler                        0x0800d8b7   Thumb Code     0  startup_stm32f10x_hd.o(.text)
    TIM1_BRK_IRQHandler                      0x0800d8b7   Thumb Code     0  startup_stm32f10x_hd.o(.text)
    TIM1_CC_IRQHandler                       0x0800d8b7   Thumb Code     0  startup_stm32f10x_hd.o(.text)
    TIM1_TRG_COM_IRQHandler                  0x0800d8b7   Thumb Code     0  startup_stm32f10x_hd.o(.text)
    TIM1_UP_IRQHandler                       0x0800d8b7   Thumb Code     0  startup_stm32f10x_hd.o(.text)
    TIM2_IRQHandler                          0x0800d8b7   Thumb Code     0  startup_stm32f10x_hd.o(.text)
    TIM4_IRQHandler                          0x0800d8b7   Thumb Code     0  startup_stm32f10x_hd.o(.text)
    TIM5_IRQHandler                          0x0800d8b7   Thumb Code     0  startup_stm32f10x_hd.o(.text)
    TIM7_IRQHandler                          0x0800d8b7   Thumb Code     0  startup_stm32f10x_hd.o(.text)
    TIM8_BRK_IRQHandler                      0x0800d8b7   Thumb Code     0  startup_stm32f10x_hd.o(.text)
    TIM8_CC_IRQHandler                       0x0800d8b7   Thumb Code     0  startup_stm32f10x_hd.o(.text)
    TIM8_TRG_COM_IRQHandler                  0x0800d8b7   Thumb Code     0  startup_stm32f10x_hd.o(.text)
    TIM8_UP_IRQHandler                       0x0800d8b7   Thumb Code     0  startup_stm32f10x_hd.o(.text)
    UART4_IRQHandler                         0x0800d8b7   Thumb Code     0  startup_stm32f10x_hd.o(.text)
    UART5_IRQHandler                         0x0800d8b7   Thumb Code     0  startup_stm32f10x_hd.o(.text)
    USART2_IRQHandler                        0x0800d8b7   Thumb Code     0  startup_stm32f10x_hd.o(.text)
    USART3_IRQHandler                        0x0800d8b7   Thumb Code     0  startup_stm32f10x_hd.o(.text)
    USBWakeUp_IRQHandler                     0x0800d8b7   Thumb Code     0  startup_stm32f10x_hd.o(.text)
    USB_HP_CAN1_TX_IRQHandler                0x0800d8b7   Thumb Code     0  startup_stm32f10x_hd.o(.text)
    USB_LP_CAN1_RX0_IRQHandler               0x0800d8b7   Thumb Code     0  startup_stm32f10x_hd.o(.text)
    WWDG_IRQHandler                          0x0800d8b7   Thumb Code     0  startup_stm32f10x_hd.o(.text)
    __user_initial_stackheap                 0x0800d8b9   Thumb Code     0  startup_stm32f10x_hd.o(.text)
    LED_Init                                 0x0800d8dd   Thumb Code    50  led.o(.text)
    tabulate_LED_STATE                       0x0800d90f   Thumb Code   338  led.o(.text)
    refresh_led                              0x0800da61   Thumb Code    92  led.o(.text)
    IIC_Init                                 0x0800dae5   Thumb Code    88  myiic.o(.text)
    IIC_Start                                0x0800db3d   Thumb Code    68  myiic.o(.text)
    IIC_Stop                                 0x0800db81   Thumb Code    66  myiic.o(.text)
    IIC_Wait_Ack                             0x0800dbc3   Thumb Code    82  myiic.o(.text)
    IIC_Ack                                  0x0800dc15   Thumb Code    72  myiic.o(.text)
    IIC_NAck                                 0x0800dc5d   Thumb Code    72  myiic.o(.text)
    IIC_Send_Byte                            0x0800dca5   Thumb Code    96  myiic.o(.text)
    IIC_Read_Byte                            0x0800dd05   Thumb Code    98  myiic.o(.text)
    AT24CXX_Init                             0x0800dd81   Thumb Code     8  24cxx.o(.text)
    AT24CXX_ReadOneByte                      0x0800dd89   Thumb Code    88  24cxx.o(.text)
    AT24CXX_WriteOneByte                     0x0800dde1   Thumb Code   102  24cxx.o(.text)
    AT24CXX_WriteLenByte                     0x0800de47   Thumb Code    42  24cxx.o(.text)
    AT24CXX_ReadLenByte                      0x0800de71   Thumb Code    44  24cxx.o(.text)
    AT24CXX_Check                            0x0800de9d   Thumb Code    46  24cxx.o(.text)
    AT24CXX_Read                             0x0800decb   Thumb Code    34  24cxx.o(.text)
    AT24CXX_Write                            0x0800deed   Thumb Code    36  24cxx.o(.text)
    SPI1_SetSpeed                            0x0800df19   Thumb Code    36  spi.o(.text)
    SPI1_ReadWriteByte                       0x0800df3d   Thumb Code    80  spi.o(.text)
    SPI1_Init                                0x0800df8d   Thumb Code   144  spi.o(.text)
    SPI2_SetSpeed                            0x0800e01d   Thumb Code    36  spi.o(.text)
    SPI2_ReadWriteByte                       0x0800e041   Thumb Code    80  spi.o(.text)
    SPI2_Init                                0x0800e091   Thumb Code   146  spi.o(.text)
    TIM3_IRQHandler                          0x0800e131   Thumb Code    20  timerx.o(.text)
    TIM3_Int_Init                            0x0800e145   Thumb Code    90  timerx.o(.text)
    TIM6_IRQHandler                          0x0800e19f   Thumb Code    78  timerx.o(.text)
    TIM6_Int_Init                            0x0800e1ed   Thumb Code    90  timerx.o(.text)
    ENC28J60_Reset                           0x0800e25d   Thumb Code   104  enc28j60.o(.text)
    ENC28J60_Read_Op                         0x0800e2c5   Thumb Code    64  enc28j60.o(.text)
    ENC28J60_Write_Op                        0x0800e305   Thumb Code    52  enc28j60.o(.text)
    ENC28J60_Read_Buf                        0x0800e339   Thumb Code    52  enc28j60.o(.text)
    ENC28J60_Write_Buf                       0x0800e36d   Thumb Code    46  enc28j60.o(.text)
    ENC28J60_Set_Bank                        0x0800e39b   Thumb Code    48  enc28j60.o(.text)
    ENC28J60_Read                            0x0800e3cb   Thumb Code    20  enc28j60.o(.text)
    ENC28J60_Write                           0x0800e3df   Thumb Code    24  enc28j60.o(.text)
    ENC28J60_PHY_Write                       0x0800e3f7   Thumb Code    62  enc28j60.o(.text)
    ENC28J60_Init                            0x0800e435   Thumb Code   366  enc28j60.o(.text)
    ENC28J60_Get_EREVID                      0x0800e5a3   Thumb Code    10  enc28j60.o(.text)
    ENC28J60_Packet_Send                     0x0800e5ad   Thumb Code   102  enc28j60.o(.text)
    ENC28J60_Packet_Receive                  0x0800e613   Thumb Code   202  enc28j60.o(.text)
    inputs_io_init                           0x0800e6e1   Thumb Code    88  inputs.o(.text)
    inputs_adc_init                          0x0800e739   Thumb Code   104  inputs.o(.text)
    inputs_init                              0x0800e7a1   Thumb Code    12  inputs.o(.text)
    range_set_func                           0x0800e7ad   Thumb Code    80  inputs.o(.text)
    ADC_getChannal                           0x0800e7fd   Thumb Code    62  inputs.o(.text)
    inputs_scan                              0x0800e83b   Thumb Code   396  inputs.o(.text)
    pulse_set                                0x0800e9c7   Thumb Code   152  inputs.o(.text)
    EXTI0_IRQHandler                         0x0800ea5f   Thumb Code    36  inputs.o(.text)
    EXTI1_IRQHandler                         0x0800ea83   Thumb Code    36  inputs.o(.text)
    EXTI2_IRQHandler                         0x0800eaa7   Thumb Code    36  inputs.o(.text)
    EXTI3_IRQHandler                         0x0800eacb   Thumb Code    90  inputs.o(.text)
    EXTI9_5_IRQHandler                       0x0800eb25   Thumb Code    92  inputs.o(.text)
    EXTI15_10_IRQHandler                     0x0800eb81   Thumb Code   130  inputs.o(.text)
    beeper_gpio_init                         0x0800ec0d   Thumb Code    40  key.o(.text)
    beeper_on                                0x0800ec35   Thumb Code    14  key.o(.text)
    beeper_off                               0x0800ec43   Thumb Code    14  key.o(.text)
    xTaskGenericCreate                       0x0800ed19   Thumb Code   240  tasks.o(.text)
    vTaskDelete                              0x0800ee09   Thumb Code    94  tasks.o(.text)
    vTaskIncrementTick                       0x0800ee67   Thumb Code   228  tasks.o(.text)
    xTaskResumeAll                           0x0800ef4b   Thumb Code   188  tasks.o(.text)
    vTaskSuspendAll                          0x0800f099   Thumb Code    12  tasks.o(.text)
    vTaskDelayUntil                          0x0800f0a5   Thumb Code   108  tasks.o(.text)
    vTaskDelay                               0x0800f111   Thumb Code    48  tasks.o(.text)
    uxTaskPriorityGet                        0x0800f141   Thumb Code    30  tasks.o(.text)
    vTaskPrioritySet                         0x0800f15f   Thumb Code   150  tasks.o(.text)
    vTaskSwitchContext                       0x0800f1f5   Thumb Code    92  tasks.o(.text)
    vTaskSuspend                             0x0800f251   Thumb Code   100  tasks.o(.text)
    xTaskIsTaskSuspended                     0x0800f2b5   Thumb Code    60  tasks.o(.text)
    vTaskResume                              0x0800f2f1   Thumb Code    92  tasks.o(.text)
    xTaskResumeFromISR                       0x0800f34d   Thumb Code   100  tasks.o(.text)
    vTaskStartScheduler                      0x0800f429   Thumb Code    52  tasks.o(.text)
    vTaskEndScheduler                        0x0800f45d   Thumb Code    18  tasks.o(.text)
    xTaskGetTickCount                        0x0800f46f   Thumb Code    78  tasks.o(.text)
    xTaskGetTickCountFromISR                 0x0800f4bd   Thumb Code    20  tasks.o(.text)
    uxTaskGetNumberOfTasks                   0x0800f4d1   Thumb Code     6  tasks.o(.text)
    vTaskPlaceOnEventList                    0x0800f4d7   Thumb Code    60  tasks.o(.text)
    xTaskRemoveFromEventList                 0x0800f513   Thumb Code    96  tasks.o(.text)
    vTaskSetTimeOutState                     0x0800f573   Thumb Code    14  tasks.o(.text)
    xTaskCheckForTimeOut                     0x0800f581   Thumb Code    92  tasks.o(.text)
    vTaskMissedYield                         0x0800f5dd   Thumb Code     8  tasks.o(.text)
    xTaskGetSchedulerState                   0x0800f5e5   Thumb Code    24  tasks.o(.text)
    vListInitialise                          0x0800f629   Thumb Code    26  list.o(.text)
    vListInitialiseItem                      0x0800f643   Thumb Code     6  list.o(.text)
    vListInsertEnd                           0x0800f649   Thumb Code    28  list.o(.text)
    vListInsert                              0x0800f665   Thumb Code    52  list.o(.text)
    vListRemove                              0x0800f699   Thumb Code    36  list.o(.text)
    pxPortInitialiseStack                    0x0800f6bd   Thumb Code    26  port.o(.text)
    xPortStartScheduler                      0x0800f6e5   Thumb Code    42  port.o(.text)
    vPortEndScheduler                        0x0800f70f   Thumb Code     2  port.o(.text)
    vPortYieldFromISR                        0x0800f711   Thumb Code    12  port.o(.text)
    vPortEnterCritical                       0x0800f71d   Thumb Code    18  port.o(.text)
    vPortExitCritical                        0x0800f72f   Thumb Code    24  port.o(.text)
    xPortSysTickHandler                      0x0800f747   Thumb Code    28  port.o(.text)
    pvPortMalloc                             0x0800f771   Thumb Code   194  heap_2.o(.text)
    vPortFree                                0x0800f833   Thumb Code    56  heap_2.o(.text)
    xPortGetFreeHeapSize                     0x0800f86b   Thumb Code     6  heap_2.o(.text)
    vPortInitialiseBlocks                    0x0800f871   Thumb Code     2  heap_2.o(.text)
    _sys_exit                                0x0800f889   Thumb Code     6  usart.o(.text)
    fputc                                    0x0800f88f   Thumb Code    46  usart.o(.text)
    uart1_init                               0x0800f8bd   Thumb Code   190  usart.o(.text)
    delay_init                               0x0800f989   Thumb Code    72  delay.o(.text)
    delay_us                                 0x0800f9d1   Thumb Code    86  delay.o(.text)
    delay_ms                                 0x0800fa27   Thumb Code    60  delay.o(.text)
    psock_send                               0x0800fc07   Thumb Code   108  psock.o(.text)
    psock_generator_send                     0x0800fc73   Thumb Code   130  psock.o(.text)
    psock_datalen                            0x0800fcf5   Thumb Code    12  psock.o(.text)
    psock_newdata                            0x0800fd01   Thumb Code    48  psock.o(.text)
    psock_readto                             0x0800fd31   Thumb Code   140  psock.o(.text)
    psock_readbuf                            0x0800fdbd   Thumb Code   142  psock.o(.text)
    psock_init                               0x0800fe4b   Thumb Code    40  psock.o(.text)
    timer_set                                0x0800fe99   Thumb Code    16  timer.o(.text)
    timer_reset                              0x0800fea9   Thumb Code    10  timer.o(.text)
    timer_restart                            0x0800feb3   Thumb Code    12  timer.o(.text)
    timer_expired                            0x0800febf   Thumb Code    26  timer.o(.text)
    uip_setipid                              0x0800fed9   Thumb Code     6  uip.o(.text)
    uip_add32                                0x0800fedf   Thumb Code   106  uip.o(.text)
    htons                                    0x0800ff8f   Thumb Code    12  uip.o(.text)
    uip_chksum                               0x0800ff9b   Thumb Code    24  uip.o(.text)
    uip_ipchksum                             0x0800ffb3   Thumb Code    30  uip.o(.text)
    uip_tcpchksum                            0x08010015   Thumb Code    10  uip.o(.text)
    uip_udpchksum                            0x0801001f   Thumb Code    10  uip.o(.text)
    uip_init                                 0x08010029   Thumb Code   132  uip.o(.text)
    uip_connect                              0x080100ad   Thumb Code   254  uip.o(.text)
    uip_udp_new                              0x080101ab   Thumb Code   194  uip.o(.text)
    uip_unlisten                             0x0801026d   Thumb Code    58  uip.o(.text)
    uip_listen                               0x080102a7   Thumb Code    92  uip.o(.text)
    uip_process                              0x0801033d   Thumb Code  4826  uip.o(.text)
    uip_send                                 0x08011617   Thumb Code    38  uip.o(.text)
    uip_arp_init                             0x0801165d   Thumb Code    46  uip_arp.o(.text)
    uip_arp_timer                            0x0801168b   Thumb Code    76  uip_arp.o(.text)
    uip_arp_arpin                            0x080117e7   Thumb Code   216  uip_arp.o(.text)
    uip_arp_out                              0x080118bf   Thumb Code   366  uip_arp.o(.text)
    clock_time                               0x08011a69   Thumb Code     6  clock-arch.o(.text)
    tapdev_init                              0x08011a75   Thumb Code   450  tapdev.o(.text)
    tapdev_read                              0x08011c37   Thumb Code    16  tapdev.o(.text)
    tapdev_send                              0x08011c47   Thumb Code    14  tapdev.o(.text)
    tcp_client_senddata                      0x08011c71   Thumb Code    26  tcp_client_demo.o(.text)
    tcp_client_acked                         0x08011c8b   Thumb Code    22  tcp_client_demo.o(.text)
    tcp_client_connected                     0x08011ca1   Thumb Code    36  tcp_client_demo.o(.text)
    tcp_client_reconnect                     0x08011cc5   Thumb Code    42  tcp_client_demo.o(.text)
    tcp_client_closed                        0x08011cef   Thumb Code    26  tcp_client_demo.o(.text)
    tcp_client_timedout                      0x08011d09   Thumb Code    22  tcp_client_demo.o(.text)
    tcp_client_aborted                       0x08011d1f   Thumb Code    26  tcp_client_demo.o(.text)
    tcp_client_demo_appcall                  0x08011d39   Thumb Code   232  tcp_client_demo.o(.text)
    tcp_appcall                              0x08011ead   Thumb Code    78  tcp_demo.o(.text)
    uip_log                                  0x08011efb   Thumb Code     2  tcp_demo.o(.text)
    Dhcpc_DeInit                             0x0801210f   Thumb Code   152  dhcpc.o(.text)
    dhcpc_init                               0x080123a1   Thumb Code    70  dhcpc.o(.text)
    dhcpc_appcall                            0x080123e7   Thumb Code     8  dhcpc.o(.text)
    dhcpc_request                            0x080123ef   Thumb Code    42  dhcpc.o(.text)
    resolv_found                             0x0801243f   Thumb Code    76  resolv.o(.text)
    resolv_appcall                           0x08012671   Thumb Code    44  resolv.o(.text)
    resolv_query                             0x0801269d   Thumb Code   164  resolv.o(.text)
    resolv_lookup                            0x08012741   Thumb Code    74  resolv.o(.text)
    resolv_getserver                         0x0801278b   Thumb Code    16  resolv.o(.text)
    resolv_conf                              0x0801279b   Thumb Code    16  resolv.o(.text)
    resolv_init                              0x080127ab   Thumb Code    48  resolv.o(.text)
    httpd_appcall                            0x0801319b   Thumb Code   148  httpd.o(.text)
    httpd_init                               0x0801322f   Thumb Code    12  httpd.o(.text)
    httpd_cgi                                0x0801325d   Thumb Code    50  httpd-cgi.o(.text)
    httpd_fs_open                            0x080134e9   Thumb Code    66  httpd-fs.o(.text)
    httpd_fs_init                            0x0801352b   Thumb Code    22  httpd-fs.o(.text)
    httpd_fs_count                           0x08013541   Thumb Code    42  httpd-fs.o(.text)
    udp_scan_init                            0x08013575   Thumb Code    20  udp_scan.o(.text)
    UdpData                                  0x08013589   Thumb Code   180  udp_scan.o(.text)
    UDP_SCAN_APP                             0x0801363d   Thumb Code   660  udp_scan.o(.text)
    udp_appcall                              0x080138d1   Thumb Code    72  udp_scan.o(.text)
    dhcpc_configured                         0x08013919   Thumb Code   322  udp_scan.o(.text)
    tcp_server_senddata                      0x08013a6d   Thumb Code    26  tcp_modbus.o(.text)
    tcp_server_acked                         0x08013a87   Thumb Code    22  tcp_modbus.o(.text)
    tcp_server_connected                     0x08013a9d   Thumb Code    36  tcp_modbus.o(.text)
    tcp_server_closed                        0x08013ac1   Thumb Code    22  tcp_modbus.o(.text)
    tcp_server_timedout                      0x08013ad7   Thumb Code    22  tcp_modbus.o(.text)
    tcp_server_aborted                       0x08013aed   Thumb Code    22  tcp_modbus.o(.text)
    tcp_server_appcall                       0x08013b03   Thumb Code   214  tcp_modbus.o(.text)
    serial_restart                           0x08013c71   Thumb Code    16  modbus.o(.text)
    USART1_IRQHandler                        0x08013c81   Thumb Code   396  modbus.o(.text)
    send_byte                                0x08013e15   Thumb Code    38  modbus.o(.text)
    USART_SendDataString                     0x08013e3b   Thumb Code    34  modbus.o(.text)
    modbus_init                              0x08013e5d   Thumb Code    22  modbus.o(.text)
    SoftReset                                0x08013e73   Thumb Code    38  modbus.o(.text)
    internalDeal                             0x08013e99   Thumb Code   144  modbus.o(.text)
    responseCmd                              0x08013f29   Thumb Code   150  modbus.o(.text)
    checkData                                0x08013fbf   Thumb Code   610  modbus.o(.text)
    dealwithData                             0x08014221   Thumb Code    56  modbus.o(.text)
    modbus_data_cope                         0x08014259   Thumb Code     2  modbus.o(.text)
    init_crc16                               0x08014271   Thumb Code    12  crc.o(.text)
    crc16_byte                               0x0801427d   Thumb Code    32  crc.o(.text)
    crc16                                    0x0801429d   Thumb Code    54  crc.o(.text)
    look_up_table1                           0x080142e5   Thumb Code   188  filter.o(.text)
    RangeConverter                           0x080143a1   Thumb Code   334  filter.o(.text)
    filter_inputs                            0x080144ef   Thumb Code   120  filter.o(.text)
    encode_max_segs_max_apdu                 0x08014589   Thumb Code   124  bacdcode.o(.text)
    decode_max_segs                          0x08014605   Thumb Code    70  bacdcode.o(.text)
    decode_max_apdu                          0x0801464b   Thumb Code    58  bacdcode.o(.text)
    encode_tag                               0x08014685   Thumb Code   136  bacdcode.o(.text)
    encode_opening_tag                       0x0801470d   Thumb Code    44  bacdcode.o(.text)
    encode_closing_tag                       0x08014739   Thumb Code    44  bacdcode.o(.text)
    decode_tag_number                        0x08014765   Thumb Code    34  bacdcode.o(.text)
    decode_tag_number_safe                   0x08014787   Thumb Code    44  bacdcode.o(.text)
    decode_is_opening_tag                    0x080147b3   Thumb Code    20  bacdcode.o(.text)
    decode_is_closing_tag                    0x080147c7   Thumb Code    20  bacdcode.o(.text)
    decode_tag_number_and_value              0x080147db   Thumb Code   148  bacdcode.o(.text)
    decode_tag_number_and_value_safe         0x0801486f   Thumb Code   178  bacdcode.o(.text)
    decode_is_context_tag                    0x08014921   Thumb Code    44  bacdcode.o(.text)
    decode_is_context_tag_with_length        0x0801494d   Thumb Code    48  bacdcode.o(.text)
    decode_is_opening_tag_number             0x0801497d   Thumb Code    44  bacdcode.o(.text)
    decode_is_closing_tag_number             0x080149a9   Thumb Code    44  bacdcode.o(.text)
    encode_application_boolean               0x080149d5   Thumb Code    36  bacdcode.o(.text)
    encode_context_boolean                   0x080149f9   Thumb Code    36  bacdcode.o(.text)
    decode_context_boolean                   0x08014a1d   Thumb Code    12  bacdcode.o(.text)
    decode_context_boolean2                  0x08014a29   Thumb Code    60  bacdcode.o(.text)
    decode_boolean                           0x08014a65   Thumb Code    10  bacdcode.o(.text)
    encode_application_null                  0x08014a6f   Thumb Code    18  bacdcode.o(.text)
    encode_context_null                      0x08014a81   Thumb Code    20  bacdcode.o(.text)
    decode_bitstring                         0x08014aeb   Thumb Code    94  bacdcode.o(.text)
    decode_context_bitstring                 0x08014b49   Thumb Code    58  bacdcode.o(.text)
    encode_bitstring                         0x08014b83   Thumb Code   112  bacdcode.o(.text)
    encode_application_bitstring             0x08014bf3   Thumb Code    50  bacdcode.o(.text)
    encode_context_bitstring                 0x08014c25   Thumb Code    52  bacdcode.o(.text)
    decode_object_id                         0x08014c59   Thumb Code    48  bacdcode.o(.text)
    decode_object_id_safe                    0x08014c89   Thumb Code    34  bacdcode.o(.text)
    decode_context_object_id                 0x08014cab   Thumb Code    58  bacdcode.o(.text)
    encode_bacnet_object_id                  0x08014ce5   Thumb Code    42  bacdcode.o(.text)
    encode_context_object_id                 0x08014d0f   Thumb Code    46  bacdcode.o(.text)
    encode_application_object_id             0x08014d3d   Thumb Code    44  bacdcode.o(.text)
    encode_octet_string                      0x08014d69   Thumb Code    52  bacdcode.o(.text)
    encode_application_octet_string          0x08014d9d   Thumb Code    68  bacdcode.o(.text)
    encode_context_octet_string              0x08014de1   Thumb Code    72  bacdcode.o(.text)
    decode_octet_string                      0x08014e29   Thumb Code    40  bacdcode.o(.text)
    decode_context_octet_string              0x08014e51   Thumb Code    70  bacdcode.o(.text)
    encode_bacnet_character_string_safe      0x08014e97   Thumb Code    46  bacdcode.o(.text)
    encode_bacnet_character_string           0x08014ec5   Thumb Code    52  bacdcode.o(.text)
    encode_application_character_string      0x08014ef9   Thumb Code    62  bacdcode.o(.text)
    encode_context_character_string          0x08014f37   Thumb Code    64  bacdcode.o(.text)
    decode_character_string                  0x08014f77   Thumb Code    42  bacdcode.o(.text)
    decode_context_character_string          0x08014fa1   Thumb Code    76  bacdcode.o(.text)
    decode_unsigned                          0x08014fed   Thumb Code    86  bacdcode.o(.text)
    decode_context_unsigned                  0x08015043   Thumb Code    58  bacdcode.o(.text)
    encode_bacnet_unsigned                   0x0801507d   Thumb Code    68  bacdcode.o(.text)
    encode_context_unsigned                  0x080150c1   Thumb Code    72  bacdcode.o(.text)
    encode_application_unsigned              0x08015109   Thumb Code    36  bacdcode.o(.text)
    decode_enumerated                        0x0801512d   Thumb Code    34  bacdcode.o(.text)
    decode_context_enumerated                0x0801514f   Thumb Code    58  bacdcode.o(.text)
    encode_bacnet_enumerated                 0x08015189   Thumb Code    16  bacdcode.o(.text)
    encode_application_enumerated            0x08015199   Thumb Code    36  bacdcode.o(.text)
    encode_context_enumerated                0x080151bd   Thumb Code    72  bacdcode.o(.text)
    decode_signed                            0x08015205   Thumb Code    80  bacdcode.o(.text)
    decode_context_signed                    0x08015255   Thumb Code    58  bacdcode.o(.text)
    encode_bacnet_signed                     0x0801528f   Thumb Code    92  bacdcode.o(.text)
    encode_application_signed                0x080152eb   Thumb Code    36  bacdcode.o(.text)
    encode_context_signed                    0x0801530f   Thumb Code    90  bacdcode.o(.text)
    encode_application_real                  0x08015369   Thumb Code    36  bacdcode.o(.text)
    encode_context_real                      0x0801538d   Thumb Code    42  bacdcode.o(.text)
    encode_application_double                0x080153b7   Thumb Code    48  bacdcode.o(.text)
    encode_context_double                    0x080153e7   Thumb Code    52  bacdcode.o(.text)
    encode_bacnet_time                       0x0801541b   Thumb Code    22  bacdcode.o(.text)
    encode_application_time                  0x08015431   Thumb Code    36  bacdcode.o(.text)
    encode_context_time                      0x08015455   Thumb Code    42  bacdcode.o(.text)
    decode_bacnet_time                       0x0801547f   Thumb Code    22  bacdcode.o(.text)
    decode_bacnet_time_safe                  0x08015495   Thumb Code    36  bacdcode.o(.text)
    decode_application_time                  0x080154b9   Thumb Code    46  bacdcode.o(.text)
    decode_context_bacnet_time               0x080154e7   Thumb Code    54  bacdcode.o(.text)
    encode_bacnet_date                       0x0801551d   Thumb Code    56  bacdcode.o(.text)
    encode_application_date                  0x08015555   Thumb Code    36  bacdcode.o(.text)
    encode_context_date                      0x08015579   Thumb Code    42  bacdcode.o(.text)
    decode_date                              0x080155a3   Thumb Code    26  bacdcode.o(.text)
    decode_date_safe                         0x080155bd   Thumb Code    36  bacdcode.o(.text)
    decode_application_date                  0x080155e1   Thumb Code    46  bacdcode.o(.text)
    decode_context_date                      0x0801560f   Thumb Code    54  bacdcode.o(.text)
    encode_simple_ack                        0x08015645   Thumb Code    14  bacdcode.o(.text)
    decode_real                              0x08015653   Thumb Code    36  bacreal.o(.text)
    decode_real_safe                         0x08015677   Thumb Code    30  bacreal.o(.text)
    decode_context_real                      0x08015695   Thumb Code    56  bacreal.o(.text)
    encode_bacnet_real                       0x080156cd   Thumb Code    34  bacreal.o(.text)
    decode_double                            0x080156ef   Thumb Code    64  bacreal.o(.text)
    decode_double_safe                       0x0801572f   Thumb Code    32  bacreal.o(.text)
    encode_bacnet_double                     0x0801574f   Thumb Code    64  bacreal.o(.text)
    decode_context_double                    0x0801578f   Thumb Code    56  bacreal.o(.text)
    encode_unsigned16                        0x080157c9   Thumb Code    12  bacint.o(.text)
    decode_unsigned16                        0x080157d5   Thumb Code    28  bacint.o(.text)
    encode_unsigned24                        0x080157f1   Thumb Code    16  bacint.o(.text)
    decode_unsigned24                        0x08015801   Thumb Code    46  bacint.o(.text)
    encode_unsigned32                        0x0801582f   Thumb Code    20  bacint.o(.text)
    decode_unsigned32                        0x08015843   Thumb Code    60  bacint.o(.text)
    encode_signed8                           0x0801587f   Thumb Code     8  bacint.o(.text)
    decode_signed8                           0x08015887   Thumb Code    36  bacint.o(.text)
    encode_signed16                          0x080158ab   Thumb Code    12  bacint.o(.text)
    decode_signed16                          0x080158b7   Thumb Code    52  bacint.o(.text)
    encode_signed24                          0x080158eb   Thumb Code    16  bacint.o(.text)
    decode_signed24                          0x080158fb   Thumb Code    68  bacint.o(.text)
    encode_signed32                          0x0801593f   Thumb Code    20  bacint.o(.text)
    decode_signed32                          0x08015953   Thumb Code    60  bacint.o(.text)
    bacnet_address_copy                      0x08015995   Thumb Code    64  bacaddr.o(.text)
    bacnet_address_same                      0x080159d5   Thumb Code   138  bacaddr.o(.text)
    datalink_send_pdu                        0x08015a61   Thumb Code    54  datalink.o(.text)
    datalink_receive                         0x08015a97   Thumb Code    42  datalink.o(.text)
    datalink_get_broadcast_address           0x08015ac1   Thumb Code    30  datalink.o(.text)
    datalink_get_my_address                  0x08015adf   Thumb Code    14  datalink.o(.text)
    datetime_is_valid                        0x08015ca9   Thumb Code    52  datetime.o(.text)
    datetime_compare_date                    0x08015cdd   Thumb Code    34  datetime.o(.text)
    datetime_compare_time                    0x08015cff   Thumb Code    42  datetime.o(.text)
    datetime_compare                         0x08015d29   Thumb Code    34  datetime.o(.text)
    datetime_copy_date                       0x08015d4b   Thumb Code    22  datetime.o(.text)
    datetime_copy_time                       0x08015d61   Thumb Code    22  datetime.o(.text)
    datetime_copy                            0x08015d77   Thumb Code    24  datetime.o(.text)
    datetime_set_date                        0x08015d8f   Thumb Code    36  datetime.o(.text)
    datetime_set_time                        0x08015db3   Thumb Code    16  datetime.o(.text)
    datetime_set                             0x08015dc3   Thumb Code    42  datetime.o(.text)
    datetime_set_values                      0x08015ded   Thumb Code    60  datetime.o(.text)
    datetime_add_minutes                     0x08015e81   Thumb Code   122  datetime.o(.text)
    datetime_wildcard                        0x08015efb   Thumb Code    68  datetime.o(.text)
    datetime_wildcard_present                0x08015f3f   Thumb Code    56  datetime.o(.text)
    datetime_date_wildcard_set               0x08015f77   Thumb Code    18  datetime.o(.text)
    datetime_time_wildcard_set               0x08015f89   Thumb Code    14  datetime.o(.text)
    datetime_wildcard_set                    0x08015f97   Thumb Code    20  datetime.o(.text)
    bacapp_encode_datetime                   0x08015fab   Thumb Code    46  datetime.o(.text)
    bacapp_encode_context_datetime           0x08015fd9   Thumb Code    60  datetime.o(.text)
    bacapp_decode_datetime                   0x08016015   Thumb Code    62  datetime.o(.text)
    bacapp_decode_context_datetime           0x08016053   Thumb Code    82  datetime.o(.text)
    dcc_enable_status                        0x080160a5   Thumb Code     6  dcc.o(.text)
    dcc_communication_enabled                0x080160ab   Thumb Code    14  dcc.o(.text)
    dcc_communication_disabled               0x080160b9   Thumb Code    14  dcc.o(.text)
    dcc_communication_initiation_disabled    0x080160c7   Thumb Code    16  dcc.o(.text)
    dcc_duration_seconds                     0x080160d7   Thumb Code     6  dcc.o(.text)
    dcc_timer_seconds                        0x080160dd   Thumb Code    46  dcc.o(.text)
    dcc_set_status_duration                  0x0801610b   Thumb Code    38  dcc.o(.text)
    dcc_encode_apdu                          0x08016131   Thumb Code   104  dcc.o(.text)
    dcc_decode_service_request               0x08016199   Thumb Code   196  dcc.o(.text)
    bacerror_encode_apdu                     0x08016265   Thumb Code    56  bacerror.o(.text)
    bacerror_decode_error_class_and_code     0x0801629d   Thumb Code   118  bacerror.o(.text)
    bacerror_decode_service_request          0x08016313   Thumb Code    56  bacerror.o(.text)
    npdu_handler                             0x0801634b   Thumb Code    96  h_npdu.o(.text)
    Analog_Output_Init                       0x080163ad   Thumb Code    34  ao.o(.text)
    Analog_Output_Valid_Instance             0x080163cf   Thumb Code    12  ao.o(.text)
    Analog_Output_Count                      0x080163db   Thumb Code     4  ao.o(.text)
    Analog_Output_Index_To_Instance          0x080163df   Thumb Code     2  ao.o(.text)
    Analog_Output_Instance_To_Index          0x080163e1   Thumb Code     2  ao.o(.text)
    Analog_Output_Present_Value              0x080163e3   Thumb Code    72  ao.o(.text)
    Analog_Output_Present_Value_Priority     0x0801642b   Thumb Code    54  ao.o(.text)
    Analog_Output_Present_Value_Set          0x08016461   Thumb Code    84  ao.o(.text)
    Analog_Output_Present_Value_Relinquish   0x080164b5   Thumb Code    48  ao.o(.text)
    Analog_Output_Object_Name                0x080164e5   Thumb Code    24  ao.o(.text)
    Analog_Output_Encode_Property_APDU       0x080164fd   Thumb Code   558  ao.o(.text)
    Analog_Output_Write_Property             0x0801672b   Thumb Code   308  ao.o(.text)
    Binary_Input_Property_Lists              0x08016865   Thumb Code    20  bi.o(.text)
    Binary_Input_Valid_Instance              0x08016879   Thumb Code    14  bi.o(.text)
    Binary_Input_Count                       0x08016887   Thumb Code     4  bi.o(.text)
    Binary_Input_Index_To_Instance           0x0801688b   Thumb Code     2  bi.o(.text)
    Binary_Input_Init                        0x0801688d   Thumb Code    30  bi.o(.text)
    Binary_Input_Instance_To_Index           0x080168ab   Thumb Code     2  bi.o(.text)
    Binary_Input_Present_Value               0x080168ad   Thumb Code    28  bi.o(.text)
    Binary_Input_Out_Of_Service              0x080168c9   Thumb Code    28  bi.o(.text)
    Binary_Input_Change_Of_Value             0x080168e5   Thumb Code    26  bi.o(.text)
    Binary_Input_Change_Of_Value_Clear       0x080168ff   Thumb Code    24  bi.o(.text)
    Binary_Input_Encode_Value_List           0x08016917   Thumb Code   162  bi.o(.text)
    Binary_Input_Present_Value_Set           0x080169b9   Thumb Code    46  bi.o(.text)
    Binary_Input_Object_Name                 0x08016a0f   Thumb Code    36  bi.o(.text)
    Binary_Input_Polarity                    0x08016a33   Thumb Code    14  bi.o(.text)
    Binary_Input_Polarity_Set                0x08016a41   Thumb Code    14  bi.o(.text)
    Binary_Input_Read_Property               0x08016a4f   Thumb Code   316  bi.o(.text)
    Binary_Input_Write_Property              0x08016b8b   Thumb Code   364  bi.o(.text)
    Binary_Output_Property_Lists             0x08016cf9   Thumb Code    20  bo.o(.text)
    Binary_Output_Init                       0x08016d0d   Thumb Code    32  bo.o(.text)
    Binary_Output_Valid_Instance             0x08016d2d   Thumb Code    14  bo.o(.text)
    Binary_Output_Count                      0x08016d3b   Thumb Code     4  bo.o(.text)
    Binary_Output_Index_To_Instance          0x08016d3f   Thumb Code     2  bo.o(.text)
    Binary_Output_Instance_To_Index          0x08016d41   Thumb Code     2  bo.o(.text)
    Binary_Output_Present_Value              0x08016d43   Thumb Code    60  bo.o(.text)
    Binary_Output_Object_Name                0x08016d7f   Thumb Code    36  bo.o(.text)
    Binary_Output_Encode_Property_APDU       0x08016da3   Thumb Code   610  bo.o(.text)
    Binary_Output_Write_Property             0x08017005   Thumb Code   486  bo.o(.text)
    dlmstp_init                              0x080171f5   Thumb Code   112  dlmstp.o(.text)
    dlmstp_cleanup                           0x08017265   Thumb Code     2  dlmstp.o(.text)
    dlmstp_fill_bacnet_address               0x08017267   Thumb Code    66  dlmstp.o(.text)
    dlmstp_send_pdu                          0x08017f73   Thumb Code    86  dlmstp.o(.text)
    dlmstp_receive                           0x08017fc9   Thumb Code   156  dlmstp.o(.text)
    dlmstp_set_max_master                    0x08018065   Thumb Code    18  dlmstp.o(.text)
    dlmstp_set_mac_address                   0x08018077   Thumb Code    28  dlmstp.o(.text)
    dlmstp_mac_address                       0x08018093   Thumb Code     6  dlmstp.o(.text)
    dlmstp_set_max_info_frames               0x08018099   Thumb Code    10  dlmstp.o(.text)
    dlmstp_max_info_frames                   0x080180a3   Thumb Code     6  dlmstp.o(.text)
    dlmstp_max_master                        0x080180a9   Thumb Code     6  dlmstp.o(.text)
    dlmstp_get_my_address                    0x080180af   Thumb Code    38  dlmstp.o(.text)
    dlmstp_get_broadcast_address             0x080180d5   Thumb Code    42  dlmstp.o(.text)
    Timer_Initialize                         0x08018149   Thumb Code     2  bacnettimer.o(.text)
    Timer_Silence                            0x0801814b   Thumb Code     6  bacnettimer.o(.text)
    Timer_Silence_Reset                      0x08018151   Thumb Code     8  bacnettimer.o(.text)
    iam_encode_pdu                           0x0801815d   Thumb Code   104  s_iam.o(.text)
    Send_I_Am                                0x080181c5   Thumb Code    48  s_iam.o(.text)
    iam_unicast_encode_pdu                   0x080181f5   Thumb Code   104  s_iam.o(.text)
    Send_I_Am_Unicast                        0x0801825d   Thumb Code    52  s_iam.o(.text)
    abort_convert_error_code                 0x08018295   Thumb Code    52  abort.o(.text)
    abort_encode_apdu                        0x080182c9   Thumb Code    28  abort.o(.text)
    abort_decode_service_request             0x080182e5   Thumb Code    22  abort.o(.text)
    rp_encode_apdu                           0x080182fb   Thumb Code   114  rp.o(.text)
    rp_decode_service_request                0x0801836d   Thumb Code   222  rp.o(.text)
    rp_ack_encode_apdu_init                  0x0801844b   Thumb Code    98  rp.o(.text)
    rp_ack_encode_apdu_object_property_end   0x080184ad   Thumb Code    22  rp.o(.text)
    rp_ack_encode_apdu                       0x080184c3   Thumb Code    66  rp.o(.text)
    rp_ack_decode_service_request            0x08018505   Thumb Code   190  rp.o(.text)
    handler_unrecognized_service             0x080185c5   Thumb Code    98  noserv.o(.text)
    reject_convert_error_code                0x08018631   Thumb Code    78  reject.o(.text)
    reject_encode_apdu                       0x0801867f   Thumb Code    20  reject.o(.text)
    reject_decode_service_request            0x08018693   Thumb Code    22  reject.o(.text)
    FIFO_Count                               0x080186a9   Thumb Code    16  fifo.o(.text)
    FIFO_Full                                0x080186b9   Thumb Code    30  fifo.o(.text)
    FIFO_Available                           0x080186d7   Thumb Code    34  fifo.o(.text)
    FIFO_Empty                               0x080186f9   Thumb Code    26  fifo.o(.text)
    FIFO_Peek                                0x08018713   Thumb Code    28  fifo.o(.text)
    FIFO_Get                                 0x0801872f   Thumb Code    40  fifo.o(.text)
    FIFO_Pull                                0x08018757   Thumb Code    76  fifo.o(.text)
    FIFO_Put                                 0x080187a3   Thumb Code    46  fifo.o(.text)
    FIFO_Add                                 0x080187d1   Thumb Code    70  fifo.o(.text)
    FIFO_Flush                               0x08018817   Thumb Code     8  fifo.o(.text)
    FIFO_Init                                0x0801881f   Thumb Code    18  fifo.o(.text)
    Send_UnconfirmedPrivateTransfer          0x08018831   Thumb Code    86  s_upt.o(.text)
    bvlc_encode_read_bdt                     0x080188b9   Thumb Code    30  bvlc.o(.text)
    bvlc_send_mpdu                           0x080188d7   Thumb Code    58  bvlc.o(.text)
    bvlc_bbmd_read_bdt                       0x08018911   Thumb Code    60  bvlc.o(.text)
    bvlc_register_with_bbmd                  0x08018993   Thumb Code    48  bvlc.o(.text)
    bvlc_for_non_bbmd                        0x080189c3   Thumb Code   132  bvlc.o(.text)
    bvlc_get_last_result                     0x08018a47   Thumb Code     6  bvlc.o(.text)
    bvlc_get_function_code                   0x08018a4d   Thumb Code     6  bvlc.o(.text)
    bacapp_encode_application_data           0x08018a65   Thumb Code   224  bacapp.o(.text)
    bacapp_decode_data                       0x08018b45   Thumb Code   284  bacapp.o(.text)
    bacapp_decode_application_data           0x08018c61   Thumb Code   110  bacapp.o(.text)
    bacapp_decode_application_data_safe      0x08018ccf   Thumb Code   204  bacapp.o(.text)
    bacapp_decode_data_len                   0x08018d9b   Thumb Code    64  bacapp.o(.text)
    bacapp_decode_application_data_len       0x08018ddb   Thumb Code    72  bacapp.o(.text)
    bacapp_encode_context_data_value         0x08018e23   Thumb Code   256  bacapp.o(.text)
    bacapp_context_tag_type                  0x08018f23   Thumb Code   296  bacapp.o(.text)
    bacapp_encode_context_data               0x0801904b   Thumb Code    62  bacapp.o(.text)
    bacapp_decode_context_data               0x08019089   Thumb Code   168  bacapp.o(.text)
    bacapp_decode_context_data_len           0x08019131   Thumb Code   102  bacapp.o(.text)
    bacapp_encode_data                       0x08019197   Thumb Code    44  bacapp.o(.text)
    bacapp_copy                              0x080191c3   Thumb Code   184  bacapp.o(.text)
    bacapp_data_len                          0x0801927b   Thumb Code   220  bacapp.o(.text)
    bacapp_parse_application_data            0x08019357   Thumb Code   462  bacapp.o(.text)
    Analog_Value_Valid_Instance              0x0801954d   Thumb Code    14  av.o(.text)
    Analog_Value_Count                       0x0801955b   Thumb Code     4  av.o(.text)
    Analog_Value_Index_To_Instance           0x0801955f   Thumb Code     2  av.o(.text)
    Analog_Value_Instance_To_Index           0x08019561   Thumb Code     2  av.o(.text)
    Analog_Value_Name                        0x08019563   Thumb Code    38  av.o(.text)
    Analog_Value_Encode_Property_APDU        0x08019589   Thumb Code   414  av.o(.text)
    Analog_Value_Write_Property              0x08019727   Thumb Code   574  av.o(.text)
    Analog_Input_Valid_Instance              0x08019965   Thumb Code    14  ai.o(.text)
    Analog_Input_Count                       0x08019973   Thumb Code     4  ai.o(.text)
    Analog_Input_Index_To_Instance           0x08019977   Thumb Code     2  ai.o(.text)
    Analog_Input_Instance_To_Index           0x08019979   Thumb Code     2  ai.o(.text)
    Analog_Input_Name                        0x0801997b   Thumb Code    14  ai.o(.text)
    Analog_Input_Encode_Property_APDU        0x08019989   Thumb Code   432  ai.o(.text)
    Analog_Input_Write_Property              0x08019b39   Thumb Code   226  ai.o(.text)
    handler_write_property                   0x08019c29   Thumb Code   508  h_wp.o(.text)
    WPValidateArgType                        0x08019e25   Thumb Code    24  h_wp.o(.text)
    npdu_copy_data                           0x08019e49   Thumb Code    34  npdu.o(.text)
    npdu_encode_pdu                          0x08019e6b   Thumb Code   300  npdu.o(.text)
    npdu_encode_npdu_data                    0x08019f97   Thumb Code    30  npdu.o(.text)
    npdu_decode                              0x08019fb5   Thumb Code   408  npdu.o(.text)
    iam_encode_apdu                          0x0801a14d   Thumb Code    88  iam.o(.text)
    iam_decode_service_request               0x0801a1a5   Thumb Code   292  iam.o(.text)
    whois_encode_apdu                        0x0801a2c9   Thumb Code    82  whois.o(.text)
    whois_decode_service_request             0x0801a31b   Thumb Code   136  whois.o(.text)
    apdu_set_confirmed_handler               0x0801a3a5   Thumb Code    12  apdu.o(.text)
    apdu_set_unrecognized_service_handler_handler 0x0801a3b1   Thumb Code     6  apdu.o(.text)
    apdu_set_unconfirmed_handler             0x0801a3b7   Thumb Code    12  apdu.o(.text)
    apdu_service_supported                   0x0801a3c3   Thumb Code    84  apdu.o(.text)
    apdu_service_supported_to_index          0x0801a417   Thumb Code    78  apdu.o(.text)
    apdu_set_confirmed_simple_ack_handler    0x0801a465   Thumb Code    82  apdu.o(.text)
    apdu_set_confirmed_ack_handler           0x0801a4b7   Thumb Code    78  apdu.o(.text)
    apdu_set_error_handler                   0x0801a505   Thumb Code    12  apdu.o(.text)
    apdu_set_abort_handler                   0x0801a511   Thumb Code     6  apdu.o(.text)
    apdu_set_reject_handler                  0x0801a517   Thumb Code     6  apdu.o(.text)
    apdu_decode_confirmed_service_request    0x0801a51d   Thumb Code   118  apdu.o(.text)
    apdu_timeout                             0x0801a593   Thumb Code     6  apdu.o(.text)
    apdu_timeout_set                         0x0801a599   Thumb Code     6  apdu.o(.text)
    apdu_retries                             0x0801a59f   Thumb Code     6  apdu.o(.text)
    apdu_retries_set                         0x0801a5a5   Thumb Code     6  apdu.o(.text)
    apdu_handler                             0x0801a5f5   Thumb Code   680  apdu.o(.text)
    wp_encode_apdu                           0x0801a8a1   Thumb Code   174  wp.o(.text)
    wp_decode_service_request                0x0801a94f   Thumb Code   332  wp.o(.text)
    Encode_Property_APDU                     0x0801aa9d   Thumb Code   278  h_rp.o(.text)
    handler_read_property                    0x0801abb3   Thumb Code   266  h_rp.o(.text)
    bitstring_init                           0x0801ad35   Thumb Code    24  bacstr.o(.text)
    bitstring_set_bit                        0x0801ad4d   Thumb Code    68  bacstr.o(.text)
    bitstring_bit                            0x0801ad91   Thumb Code    48  bacstr.o(.text)
    bitstring_bits_used                      0x0801adc1   Thumb Code     6  bacstr.o(.text)
    bitstring_bytes_used                     0x0801adc7   Thumb Code    38  bacstr.o(.text)
    bitstring_octet                          0x0801aded   Thumb Code    16  bacstr.o(.text)
    bitstring_set_octet                      0x0801adfd   Thumb Code    20  bacstr.o(.text)
    bitstring_set_bits_used                  0x0801ae11   Thumb Code    24  bacstr.o(.text)
    bitstring_bits_capacity                  0x0801ae29   Thumb Code    12  bacstr.o(.text)
    bitstring_copy                           0x0801ae35   Thumb Code    38  bacstr.o(.text)
    bitstring_same                           0x0801ae5b   Thumb Code   126  bacstr.o(.text)
    characterstring_init                     0x0801aed9   Thumb Code    96  bacstr.o(.text)
    characterstring_init_ansi                0x0801af39   Thumb Code    34  bacstr.o(.text)
    characterstring_length                   0x0801af5b   Thumb Code    10  bacstr.o(.text)
    characterstring_value                    0x0801af65   Thumb Code    10  bacstr.o(.text)
    characterstring_encoding                 0x0801af6f   Thumb Code    10  bacstr.o(.text)
    characterstring_copy                     0x0801af79   Thumb Code    48  bacstr.o(.text)
    characterstring_ansi_copy                0x0801afa9   Thumb Code    56  bacstr.o(.text)
    characterstring_same                     0x0801afe1   Thumb Code    80  bacstr.o(.text)
    characterstring_ansi_same                0x0801b031   Thumb Code    90  bacstr.o(.text)
    characterstring_append                   0x0801b08b   Thumb Code    50  bacstr.o(.text)
    characterstring_truncate                 0x0801b0bd   Thumb Code    20  bacstr.o(.text)
    characterstring_capacity                 0x0801b0d1   Thumb Code    12  bacstr.o(.text)
    characterstring_set_encoding             0x0801b0dd   Thumb Code    12  bacstr.o(.text)
    characterstring_printable                0x0801b0e9   Thumb Code    60  bacstr.o(.text)
    utf8_isvalid                             0x0801b125   Thumb Code   220  bacstr.o(.text)
    characterstring_valid                    0x0801b201   Thumb Code    36  bacstr.o(.text)
    octetstring_init                         0x0801b225   Thumb Code    86  bacstr.o(.text)
    octetstring_init_ascii_hex               0x0801b27b   Thumb Code    46  bacstr.o(.text)
    octetstring_length                       0x0801b2a9   Thumb Code    10  bacstr.o(.text)
    octetstring_value                        0x0801b2b3   Thumb Code    10  bacstr.o(.text)
    octetstring_copy                         0x0801b2bd   Thumb Code    34  bacstr.o(.text)
    octetstring_copy_value                   0x0801b2df   Thumb Code    40  bacstr.o(.text)
    octetstring_append                       0x0801b307   Thumb Code    50  bacstr.o(.text)
    octetstring_truncate                     0x0801b339   Thumb Code    20  bacstr.o(.text)
    octetstring_capacity                     0x0801b34d   Thumb Code    12  bacstr.o(.text)
    octetstring_value_same                   0x0801b359   Thumb Code    64  bacstr.o(.text)
    handler_who_is                           0x0801b3a5   Thumb Code    88  h_whois.o(.text)
    CRC_Calc_Header                          0x0801b405   Thumb Code    52  bacnetcrc.o(.text)
    CRC_Calc_Data                            0x0801b439   Thumb Code    48  bacnetcrc.o(.text)
    bip_Event                                0x0801b46f   Thumb Code     8  bip.o(.text)
    bip_set_socket                           0x0801b477   Thumb Code     6  bip.o(.text)
    BIP_Receive_Handler                      0x0801b47d   Thumb Code    44  bip.o(.text)
    bip_Init                                 0x0801b4a9   Thumb Code     2  bip.o(.text)
    bip_socket                               0x0801b4ab   Thumb Code     6  bip.o(.text)
    bip_valid                                0x0801b4b1   Thumb Code    16  bip.o(.text)
    bip_set_addr                             0x0801b4c1   Thumb Code     6  bip.o(.text)
    bip_get_addr                             0x0801b4c7   Thumb Code     6  bip.o(.text)
    bip_set_broadcast_addr                   0x0801b4cd   Thumb Code     6  bip.o(.text)
    bip_get_broadcast_addr                   0x0801b4d3   Thumb Code     6  bip.o(.text)
    bip_set_port                             0x0801b4d9   Thumb Code     6  bip.o(.text)
    bip_get_port                             0x0801b4df   Thumb Code     6  bip.o(.text)
    bip_send_pdu                             0x0801b4fd   Thumb Code   196  bip.o(.text)
    bip_receive                              0x0801b5c1   Thumb Code   374  bip.o(.text)
    bip_get_my_address                       0x0801b737   Thumb Code    52  bip.o(.text)
    bip_get_broadcast_address                0x0801b76b   Thumb Code    56  bip.o(.text)
    Device_Init                              0x0801b7cd   Thumb Code    20  device.o(.text)
    Device_Object_Instance_Number            0x0801b7e1   Thumb Code     6  device.o(.text)
    Device_Set_Object_Instance_Number        0x0801b7e7   Thumb Code    20  device.o(.text)
    Device_Valid_Object_Instance_Number      0x0801b7fb   Thumb Code    18  device.o(.text)
    Device_Vendor_Identifier                 0x0801b80d   Thumb Code     6  device.o(.text)
    Device_Object_List_Count                 0x0801b813   Thumb Code    38  device.o(.text)
    Device_Object_List_Identifier            0x0801b839   Thumb Code   220  device.o(.text)
    Device_Encode_Property_APDU              0x0801b915   Thumb Code   836  device.o(.text)
    Device_Write_Property                    0x0801bc59   Thumb Code   508  device.o(.text)
    uptransfer_encode_apdu                   0x0801beb9   Thumb Code    46  ptransfer.o(.text)
    ptransfer_decode_service_request         0x0801bee7   Thumb Code   120  ptransfer.o(.text)
    ptransfer_decode_apdu                    0x0801bf5f   Thumb Code    74  ptransfer.o(.text)
    handler_private_transfer                 0x0801bfa9   Thumb Code   460  ptransfer.o(.text)
    uptransfer_decode_apdu                   0x0801c175   Thumb Code    70  ptransfer.o(.text)
    ptransfer_encode_apdu                    0x0801c1bb   Thumb Code    60  ptransfer.o(.text)
    ptransfer_error_encode_apdu              0x0801c1f7   Thumb Code   162  ptransfer.o(.text)
    ptransfer_error_decode_service_request   0x0801c299   Thumb Code   296  ptransfer.o(.text)
    ptransfer_ack_encode_apdu                0x0801c3c1   Thumb Code   110  ptransfer.o(.text)
    init_info_table                          0x0801c431   Thumb Code   136  user_data.o(.text)
    update_timers                            0x0801c4b9   Thumb Code    82  user_data.o(.text)
    init_panel                               0x0801c50b   Thumb Code   212  user_data.o(.text)
    Initial_Panel_Info                       0x0801c5df   Thumb Code    20  user_data.o(.text)
    Bacnet_Initial_Data                      0x0801c5f3   Thumb Code     8  user_data.o(.text)
    Read_bacnet_value_from_buf               0x0801c5fb   Thumb Code    76  user_data.o(.text)
    wirte_bacnet_value_to_buf                0x0801c647   Thumb Code   112  user_data.o(.text)
    Recievebuf_Initialize                    0x0801c725   Thumb Code    16  rs485.o(.text)
    RS485_Transmitter_Enable                 0x0801c735   Thumb Code    18  rs485.o(.text)
    RS485_Turnaround_Delay                   0x0801c747   Thumb Code    66  rs485.o(.text)
    RS485_Send_Data                          0x0801c789   Thumb Code    36  rs485.o(.text)
    RS485_ReceiveError                       0x0801c7ad   Thumb Code     4  rs485.o(.text)
    RS485_DataAvailable                      0x0801c7b1   Thumb Code    32  rs485.o(.text)
    mymemcpy                                 0x0801c7e5   Thumb Code    26  vmalloc.o(.text)
    mymemset                                 0x0801c7ff   Thumb Code    20  vmalloc.o(.text)
    mem_init                                 0x0801c813   Thumb Code    54  vmalloc.o(.text)
    mem_perused                              0x0801c849   Thumb Code    54  vmalloc.o(.text)
    mem_malloc                               0x0801c87f   Thumb Code   162  vmalloc.o(.text)
    mem_free                                 0x0801c921   Thumb Code    94  vmalloc.o(.text)
    myfree                                   0x0801c97f   Thumb Code    32  vmalloc.o(.text)
    mymalloc                                 0x0801c99f   Thumb Code    34  vmalloc.o(.text)
    myrealloc                                0x0801c9c1   Thumb Code    66  vmalloc.o(.text)
    __use_no_semihosting                     0x0801ca15   Thumb Code     2  use_no_semi_2.o(.text)
    __2printf                                0x0801ca19   Thumb Code    20  __2printf.o(.text)
    __2sprintf                               0x0801ca31   Thumb Code    38  __2sprintf.o(.text)
    __2snprintf                              0x0801ca5d   Thumb Code    50  __2snprintf.o(.text)
    _printf_pre_padding                      0x0801ca95   Thumb Code    46  _printf_pad.o(.text)
    _printf_post_padding                     0x0801cac3   Thumb Code    36  _printf_pad.o(.text)
    _printf_str                              0x0801cae7   Thumb Code    82  _printf_str.o(.text)
    _printf_int_dec                          0x0801cb39   Thumb Code   102  _printf_dec.o(.text)
    __printf                                 0x0801cbb1   Thumb Code   352  __printf_ss_wp.o(.text)
    __0sscanf                                0x0801cd11   Thumb Code    52  __0sscanf.o(.text)
    _scanf_int                               0x0801cd4d   Thumb Code   336  _scanf_int.o(.text)
    strtol                                   0x0801ce9d   Thumb Code   112  strtol.o(.text)
    strtoul                                  0x0801cf0d   Thumb Code   114  strtoul.o(.text)
    srand                                    0x0801cf81   Thumb Code    42  rand.o(.text)
    _rand_init                               0x0801cfab   Thumb Code     4  rand.o(.text)
    strchr                                   0x0801cfbd   Thumb Code    20  strchr.o(.text)
    strstr                                   0x0801cfd1   Thumb Code    36  strstr.o(.text)
    memcmp                                   0x0801cff5   Thumb Code    88  memcmp.o(.text)
    strcpy                                   0x0801d04d   Thumb Code    72  strcpy.o(.text)
    strrchr                                  0x0801d095   Thumb Code    22  strrchr.o(.text)
    strlen                                   0x0801d0ab   Thumb Code    62  strlen.o(.text)
    strncmp                                  0x0801d0e9   Thumb Code   150  strncmp.o(.text)
    __aeabi_memcpy                           0x0801d17f   Thumb Code     0  rt_memcpy_v6.o(.text)
    __rt_memcpy                              0x0801d17f   Thumb Code   138  rt_memcpy_v6.o(.text)
    _memcpy_lastbytes                        0x0801d1e5   Thumb Code     0  rt_memcpy_v6.o(.text)
    __aeabi_memcpy4                          0x0801d209   Thumb Code     0  rt_memcpy_w.o(.text)
    __aeabi_memcpy8                          0x0801d209   Thumb Code     0  rt_memcpy_w.o(.text)
    __rt_memcpy_w                            0x0801d209   Thumb Code   100  rt_memcpy_w.o(.text)
    _memcpy_lastbytes_aligned                0x0801d251   Thumb Code     0  rt_memcpy_w.o(.text)
    __aeabi_memset                           0x0801d26d   Thumb Code    16  aeabi_memset.o(.text)
    __aeabi_memclr                           0x0801d27d   Thumb Code     0  rt_memclr.o(.text)
    __rt_memclr                              0x0801d27d   Thumb Code    68  rt_memclr.o(.text)
    _memset                                  0x0801d281   Thumb Code     0  rt_memclr.o(.text)
    __aeabi_memclr4                          0x0801d2c1   Thumb Code     0  rt_memclr_w.o(.text)
    __aeabi_memclr8                          0x0801d2c1   Thumb Code     0  rt_memclr_w.o(.text)
    __rt_memclr_w                            0x0801d2c1   Thumb Code    78  rt_memclr_w.o(.text)
    _memset_w                                0x0801d2c5   Thumb Code     0  rt_memclr_w.o(.text)
    strncpy                                  0x0801d30f   Thumb Code    86  strncpy.o(.text)
    strcmp                                   0x0801d365   Thumb Code   128  strcmpv7m.o(.text)
    __use_two_region_memory                  0x0801d3e5   Thumb Code     2  heapauxi.o(.text)
    __rt_heap_escrow$2region                 0x0801d3e7   Thumb Code     2  heapauxi.o(.text)
    __rt_heap_expand$2region                 0x0801d3e9   Thumb Code     2  heapauxi.o(.text)
    __I$use$semihosting                      0x0801d3eb   Thumb Code     0  use_no_semi.o(.text)
    __use_no_semihosting_swi                 0x0801d3eb   Thumb Code     2  use_no_semi.o(.text)
    __rt_ctype_table                         0x0801d3ed   Thumb Code    16  rt_ctype_table.o(.text)
    __aeabi_errno_addr                       0x0801d3fd   Thumb Code     8  rt_errno_addr_intlibspace.o(.text)
    __errno$intlibspace                      0x0801d3fd   Thumb Code     0  rt_errno_addr_intlibspace.o(.text)
    __rt_errno_addr$intlibspace              0x0801d3fd   Thumb Code     0  rt_errno_addr_intlibspace.o(.text)
    _printf_int_common                       0x0801d405   Thumb Code   184  _printf_intcommon.o(.text)
    _printf_char_common                      0x0801d4c7   Thumb Code    32  _printf_char_common.o(.text)
    _sputc                                   0x0801d4ed   Thumb Code    10  _sputc.o(.text)
    _snputc                                  0x0801d4f7   Thumb Code    16  _snputc.o(.text)
    _printf_cs_common                        0x0801d507   Thumb Code    20  _printf_char.o(.text)
    _printf_char                             0x0801d51b   Thumb Code    16  _printf_char.o(.text)
    _printf_string                           0x0801d52b   Thumb Code     8  _printf_char.o(.text)
    _printf_char_file                        0x0801d535   Thumb Code    32  _printf_char_file.o(.text)
    _chval                                   0x0801d559   Thumb Code    28  _chval.o(.text)
    __vfscanf_char                           0x0801d581   Thumb Code    24  scanf_char.o(.text)
    _sgetc                                   0x0801d5a1   Thumb Code    30  _sgetc.o(.text)
    _sbackspace                              0x0801d5bf   Thumb Code    34  _sgetc.o(.text)
    _strtoul                                 0x0801d5e1   Thumb Code   158  _strtoul.o(.text)
    __strtod_int                             0x0801d6bd   Thumb Code    88  strtod.o(.text)
    __user_libspace                          0x0801d721   Thumb Code     8  libspace.o(.text)
    __user_perproc_libspace                  0x0801d721   Thumb Code     0  libspace.o(.text)
    __user_perthread_libspace                0x0801d721   Thumb Code     0  libspace.o(.text)
    __rt_locale                              0x0801d729   Thumb Code     8  rt_locale_intlibspace.o(.text)
    isspace                                  0x0801d731   Thumb Code    18  isspace.o(.text)
    __vfscanf                                0x0801d745   Thumb Code   876  _scanf.o(.text)
    _btod_etento                             0x0801dab5   Thumb Code   222  bigflt0.o(.text)
    ferror                                   0x0801db99   Thumb Code     8  ferror.o(.text)
    __user_setup_stackheap                   0x0801dba1   Thumb Code    74  sys_stackheap_outer.o(.text)
    _scanf_really_real                       0x0801dde5   Thumb Code   672  scanf_fp.o(.text)
    exit                                     0x0801e091   Thumb Code    12  exit.o(.text)
    __read_errno                             0x0801e09d   Thumb Code    10  _rserrno.o(.text)
    __set_errno                              0x0801e0a7   Thumb Code    12  _rserrno.o(.text)
    _scanf_really_hex_real                   0x0801e0b5   Thumb Code   776  scanf_hexfp.o(.text)
    _scanf_really_infnan                     0x0801e3c9   Thumb Code   298  scanf_infnan.o(.text)
    __aeabi_llsl                             0x0801e505   Thumb Code     0  llshl.o(.text)
    _ll_shift_l                              0x0801e505   Thumb Code    38  llshl.o(.text)
    __btod_div_common                        0x0801e52b   Thumb Code   696  btod.o(CL$$btod_div_common)
    _e2d                                     0x0801e865   Thumb Code    80  btod.o(CL$$btod_e2d)
    _e2e                                     0x0801e8b9   Thumb Code   198  btod.o(CL$$btod_e2e)
    _btod_ediv                               0x0801e97f   Thumb Code    40  btod.o(CL$$btod_ediv)
    _btod_edivd                              0x0801e9a7   Thumb Code    40  btod.o(CL$$btod_edivd)
    _btod_emul                               0x0801e9cf   Thumb Code    40  btod.o(CL$$btod_emul)
    _btod_emuld                              0x0801e9f7   Thumb Code    40  btod.o(CL$$btod_emuld)
    __btod_mult_common                       0x0801ea1f   Thumb Code   580  btod.o(CL$$btod_mult_common)
    __mathlib_dbl_underflow                  0x0801ec65   Thumb Code    10  dunder.o(i.__mathlib_dbl_underflow)
    __mathlib_narrow                         0x0801ec75   Thumb Code    16  narrow.o(i.__mathlib_narrow)
    __mathlib_tofloat                        0x0801ec85   Thumb Code   132  narrow.o(i.__mathlib_tofloat)
    __support_ldexp                          0x0801ed0d   Thumb Code    22  ldexp.o(i.__support_ldexp)
    _is_digit                                0x0801ed23   Thumb Code    14  __printf_wp.o(i._is_digit)
    frexp                                    0x0801ed31   Thumb Code    80  frexp.o(i.frexp)
    ldexp                                    0x0801ed89   Thumb Code   126  ldexp.o(i.ldexp)
    strtod                                   0x0801ee07   Thumb Code    28  strtod.o(i.strtod)
    _get_lc_ctype                            0x0801ee25   Thumb Code    44  lc_ctype_c.o(locale$$code)
    _get_lc_numeric                          0x0801ee51   Thumb Code    44  lc_numeric_c.o(locale$$code)
    __aeabi_d2f                              0x0801ee7d   Thumb Code     0  d2f.o(x$fpl$d2f)
    _d2f                                     0x0801ee7d   Thumb Code    98  d2f.o(x$fpl$d2f)
    __fpl_dcheck_NaN1                        0x0801eee1   Thumb Code    10  dcheck1.o(x$fpl$dcheck1)
    __fpl_dcmp_Inf                           0x0801eef1   Thumb Code    24  dcmpi.o(x$fpl$dcmpinf)
    __aeabi_cdcmpeq                          0x0801ef09   Thumb Code     0  deqf.o(x$fpl$deqf)
    _dcmpeq                                  0x0801ef09   Thumb Code   120  deqf.o(x$fpl$deqf)
    __aeabi_cdcmple                          0x0801ef81   Thumb Code     0  dleqf.o(x$fpl$dleqf)
    _dcmple                                  0x0801ef81   Thumb Code   120  dleqf.o(x$fpl$dleqf)
    __fpl_dcmple_InfNaN                      0x0801efe3   Thumb Code     0  dleqf.o(x$fpl$dleqf)
    __fpl_dnaninf                            0x0801eff9   Thumb Code   156  dnaninf.o(x$fpl$dnaninf)
    __aeabi_cdrcmple                         0x0801f095   Thumb Code     0  drleqf.o(x$fpl$drleqf)
    _drcmple                                 0x0801f095   Thumb Code   108  drleqf.o(x$fpl$drleqf)
    __fpl_fcmp_Inf                           0x0801f101   Thumb Code    24  fcmpi.o(x$fpl$fcmpinf)
    __aeabi_fdiv                             0x0801f119   Thumb Code     0  fdiv.o(x$fpl$fdiv)
    _fdiv                                    0x0801f119   Thumb Code   384  fdiv.o(x$fpl$fdiv)
    __aeabi_f2iz                             0x0801f29d   Thumb Code     0  ffix.o(x$fpl$ffix)
    _ffix                                    0x0801f29d   Thumb Code    54  ffix.o(x$fpl$ffix)
    __aeabi_f2uiz                            0x0801f2d5   Thumb Code     0  ffixu.o(x$fpl$ffixu)
    _ffixu                                   0x0801f2d5   Thumb Code    62  ffixu.o(x$fpl$ffixu)
    __aeabi_i2f                              0x0801f315   Thumb Code     0  fflt_clz.o(x$fpl$fflt)
    _fflt                                    0x0801f315   Thumb Code    48  fflt_clz.o(x$fpl$fflt)
    __aeabi_ui2f                             0x0801f345   Thumb Code     0  fflt_clz.o(x$fpl$ffltu)
    _ffltu                                   0x0801f345   Thumb Code    38  fflt_clz.o(x$fpl$ffltu)
    __aeabi_cfcmple                          0x0801f36d   Thumb Code     0  fleqf.o(x$fpl$fleqf)
    _fcmple                                  0x0801f36d   Thumb Code   104  fleqf.o(x$fpl$fleqf)
    __fpl_fcmple_InfNaN                      0x0801f3bf   Thumb Code     0  fleqf.o(x$fpl$fleqf)
    __aeabi_fmul                             0x0801f3d5   Thumb Code     0  fmul.o(x$fpl$fmul)
    _fmul                                    0x0801f3d5   Thumb Code   258  fmul.o(x$fpl$fmul)
    __fpl_fnaninf                            0x0801f4d7   Thumb Code   140  fnaninf.o(x$fpl$fnaninf)
    __fpl_fretinf                            0x0801f563   Thumb Code    10  fretinf.o(x$fpl$fretinf)
    __aeabi_cfrcmple                         0x0801f56d   Thumb Code     0  frleqf.o(x$fpl$frleqf)
    _frcmple                                 0x0801f56d   Thumb Code    98  frleqf.o(x$fpl$frleqf)
    __fpl_return_NaN                         0x0801f5cf   Thumb Code   100  retnan.o(x$fpl$retnan)
    __ARM_scalbn                             0x0801f633   Thumb Code    92  scalbn.o(x$fpl$scalbn)
    _scanf_real                              0x0801f68f   Thumb Code     4  scanf1.o(x$fpl$scanf1)
    _scanf_hex_real                          0x0801f693   Thumb Code     4  scanf2.o(x$fpl$scanf2)
    _scanf_infnan                            0x0801f697   Thumb Code     4  scanf2.o(x$fpl$scanf2)
    __fpl_cmpreturn                          0x0801f69b   Thumb Code    48  trapv.o(x$fpl$trapveneer)
    __I$use$fp                               0x0801f6ca   Number         0  usenofp.o(x$fpl$usenofp)
    _STR_PLUSE_SETTING_                      0x0801f6cc   Data         176  inputs.o(.constdata)
    http_http                                0x0801f796   Data           8  http-strings.o(.constdata)
    http_200                                 0x0801f79e   Data           5  http-strings.o(.constdata)
    http_301                                 0x0801f7a3   Data           5  http-strings.o(.constdata)
    http_302                                 0x0801f7a8   Data           5  http-strings.o(.constdata)
    http_get                                 0x0801f7ad   Data           5  http-strings.o(.constdata)
    http_10                                  0x0801f7b2   Data           9  http-strings.o(.constdata)
    http_11                                  0x0801f7bb   Data           9  http-strings.o(.constdata)
    http_content_type                        0x0801f7c4   Data          15  http-strings.o(.constdata)
    http_texthtml                            0x0801f7d3   Data          10  http-strings.o(.constdata)
    http_location                            0x0801f7dd   Data          11  http-strings.o(.constdata)
    http_host                                0x0801f7e8   Data           7  http-strings.o(.constdata)
    http_crnl                                0x0801f7ef   Data           3  http-strings.o(.constdata)
    http_index_html                          0x0801f7f2   Data          12  http-strings.o(.constdata)
    http_404_html                            0x0801f7fe   Data          10  http-strings.o(.constdata)
    http_referer                             0x0801f808   Data           9  http-strings.o(.constdata)
    http_header_200                          0x0801f811   Data          84  http-strings.o(.constdata)
    http_header_404                          0x0801f865   Data          91  http-strings.o(.constdata)
    http_content_type_plain                  0x0801f8c0   Data          29  http-strings.o(.constdata)
    http_content_type_html                   0x0801f8dd   Data          28  http-strings.o(.constdata)
    http_content_type_css                    0x0801f8f9   Data          27  http-strings.o(.constdata)
    http_content_type_text                   0x0801f914   Data          28  http-strings.o(.constdata)
    http_content_type_png                    0x0801f930   Data          28  http-strings.o(.constdata)
    http_content_type_gif                    0x0801f94c   Data          28  http-strings.o(.constdata)
    http_content_type_jpg                    0x0801f968   Data          29  http-strings.o(.constdata)
    http_content_type_binary                 0x0801f985   Data          43  http-strings.o(.constdata)
    http_html                                0x0801f9b0   Data           6  http-strings.o(.constdata)
    http_shtml                               0x0801f9b6   Data           7  http-strings.o(.constdata)
    http_htm                                 0x0801f9bd   Data           5  http-strings.o(.constdata)
    http_css                                 0x0801f9c2   Data           5  http-strings.o(.constdata)
    http_png                                 0x0801f9c7   Data           5  http-strings.o(.constdata)
    http_gif                                 0x0801f9cc   Data           5  http-strings.o(.constdata)
    http_jpg                                 0x0801f9d1   Data           5  http-strings.o(.constdata)
    http_text                                0x0801f9d6   Data           5  http-strings.o(.constdata)
    http_txt                                 0x0801f9db   Data           5  http-strings.o(.constdata)
    file_processes_shtml                     0x08020cc4   Data          20  httpd-fs.o(.constdata)
    file_404_html                            0x08020cd8   Data          20  httpd-fs.o(.constdata)
    file_files_shtml                         0x08020cec   Data          20  httpd-fs.o(.constdata)
    file_footer_html                         0x08020d00   Data          20  httpd-fs.o(.constdata)
    file_header_html                         0x08020d14   Data          20  httpd-fs.o(.constdata)
    file_index_html                          0x08020d28   Data          20  httpd-fs.o(.constdata)
    file_style_css                           0x08020d3c   Data          20  httpd-fs.o(.constdata)
    file_tcp_shtml                           0x08020d50   Data          20  httpd-fs.o(.constdata)
    file_fade_png                            0x08020d64   Data          20  httpd-fs.o(.constdata)
    file_stats_shtml                         0x08020d78   Data          20  httpd-fs.o(.constdata)
    auchCRCHi                                0x08020d8c   Data         256  crc.o(.constdata)
    auchCRCLo                                0x08020e8c   Data         256  crc.o(.constdata)
    def_tab_pic_Type2_10K                    0x08020f8c   Data          21  filter.o(.constdata)
    def_tab_pic_Type3_10K                    0x08020fa1   Data          21  filter.o(.constdata)
    av_name                                  0x0802105c   Data         832  av.o(.constdata)
    memtblsize                               0x0802149c   Data           8  vmalloc.o(.constdata)
    memblksize                               0x080214a4   Data           8  vmalloc.o(.constdata)
    memsize                                  0x080214ac   Data           8  vmalloc.o(.constdata)
    Region$$Table$$Base                      0x08021660   Number         0  anon$$obj.o(Region$$Table)
    Region$$Table$$Limit                     0x08021680   Number         0  anon$$obj.o(Region$$Table)
    __aeabi_HUGE_VAL                         0x08021680   Data           0  fpconst.o(c$$dinf)
    __aeabi_HUGE_VALL                        0x08021680   Data           0  fpconst.o(c$$dinf)
    __aeabi_INFINITY                         0x08021680   Data           0  fpconst.o(c$$dinf)
    __dInf                                   0x08021680   Data           0  fpconst.o(c$$dinf)
    __huge_val                               0x08021680   Data           0  fpconst.o(c$$dinf)
    __ctype                                  0x08021695   Data           0  lc_ctype_c.o(locale$$data)
    read_cal                                 0x20000000   Data           1  main.o(.data)
    global_key                               0x20000001   Data           1  main.o(.data)
    ram_test1                                0x20000015   Data           1  main.o(.data)
    ram_test2                                0x20000016   Data           1  main.o(.data)
    SystemCoreClock                          0x20000018   Data           4  system_stm32f10x.o(.data)
    AHBPrescTable                            0x2000001c   Data          16  system_stm32f10x.o(.data)
    address_temp                             0x2000002c   Data           1  modbus_regop.o(.data)
    div_buf                                  0x2000002d   Data           1  modbus_regop.o(.data)
    address_buf                              0x2000002e   Data           1  modbus_regop.o(.data)
    i                                        0x2000002f   Data           1  modbus_regop.o(.data)
    temp1                                    0x20000030   Data           1  modbus_response.o(.data)
    temp2                                    0x20000031   Data           1  modbus_response.o(.data)
    address                                  0x20000032   Data           2  modbus_response.o(.data)
    div_temp                                 0x20000034   Data           2  modbus_response.o(.data)
    send_cout                                0x20000036   Data           2  modbus_response.o(.data)
    led_bank1                                0x2000004c   Data           2  led.o(.data)
    led_bank2                                0x2000004e   Data           2  led.o(.data)
    heart_beat_led                           0x20000050   Data           1  led.o(.data)
    tx_count                                 0x20000051   Data           1  led.o(.data)
    rx_count                                 0x20000052   Data           1  led.o(.data)
    dhcp_run_time                            0x20000058   Data           4  timerx.o(.data)
    uip_timer                                0x2000005c   Data           4  timerx.o(.data)
    pxCurrentTCB                             0x20000098   Data           4  tasks.o(.data)
    USART_RX_STA                             0x200000f0   Data           2  usart.o(.data)
    __stdout                                 0x200000f4   Data           4  usart.o(.data)
    uip_ethaddr                              0x200000fc   Data           6  uip.o(.data)
    uip_hostaddr                             0x20000102   Data           4  uip.o(.data)
    uip_draddr                               0x20000106   Data           4  uip.o(.data)
    uip_netmask                              0x2000010a   Data           4  uip.o(.data)
    uip_appdata                              0x20000110   Data           4  uip.o(.data)
    uip_sappdata                             0x20000114   Data           4  uip.o(.data)
    uip_len                                  0x20000118   Data           2  uip.o(.data)
    uip_slen                                 0x2000011a   Data           2  uip.o(.data)
    uip_flags                                0x2000011c   Data           1  uip.o(.data)
    uip_conn                                 0x20000120   Data           4  uip.o(.data)
    uip_udp_conn                             0x20000124   Data           4  uip.o(.data)
    uip_acc32                                0x20000130   Data           4  uip.o(.data)
    tcp_client_sta                           0x20000140   Data           1  tcp_client_demo.o(.data)
    LED0_ON_PIC_ADDR                         0x20000158   Data           4  httpd.o(.data)
    LED1_ON_PIC_ADDR                         0x2000015c   Data           4  httpd.o(.data)
    LED_OFF_PIC_ADDR                         0x20000160   Data           4  httpd.o(.data)
    data_index_html                          0x20000198   Data        1673  httpd-fs.o(.data)
    state                                    0x20000821   Data           1  udp_scan.o(.data)
    scanstart                                0x20000822   Data           1  udp_scan.o(.data)
    IP_Change                                0x20000823   Data           1  udp_scan.o(.data)
    tcp_server_sta                           0x20000824   Data           1  tcp_modbus.o(.data)
    tcp_server_sendlen                       0x20000826   Data           2  tcp_modbus.o(.data)
    transmit_finished                        0x20000829   Data           1  modbus.o(.data)
    revce_count                              0x2000082a   Data           1  modbus.o(.data)
    rece_size                                0x2000082b   Data           1  modbus.o(.data)
    sendbyte_num                             0x2000082c   Data           2  modbus.o(.data)
    uart_num                                 0x2000082e   Data           2  modbus.o(.data)
    Station_NUM                              0x20000830   Data           1  modbus.o(.data)
    serial_receive_timeout_count             0x20000835   Data           1  modbus.o(.data)
    SERIAL_RECEIVE_TIMEOUT                   0x20000836   Data           1  modbus.o(.data)
    dealwithTag                              0x20000837   Data           1  modbus.o(.data)
    DealwithTag                              0x20000838   Data           1  modbus.o(.data)
    CRClo                                    0x20000839   Data           1  crc.o(.data)
    CRChi                                    0x2000083a   Data           1  crc.o(.data)
    BI_Present_Value                         0x20000844   Data           5  bi.o(.data)
    This_Station                             0x20000858   Data           1  dlmstp.o(.data)
    MSTP_Flag                                0x20000870   Data           4  dlmstp.o(.data)
    mstp_port                                0x20000888   Data           4  dlmstp.o(.data)
    SilenceTime                              0x2000088c   Data           2  bacnettimer.o(.data)
    BVLC_Result_Code                         0x2000088e   Data           1  bvlc.o(.data)
    BVLC_Function_Code                       0x2000088f   Data           1  bvlc.o(.data)
    Send_I_Am_Flag                           0x200008d4   Data           1  h_whois.o(.data)
    sembip                                   0x200008e0   Data           4  bip.o(.data)
    bip_Data                                 0x200008f8   Data           4  bip.o(.data)
    bip_len                                  0x200008fc   Data           2  bip.o(.data)
    text_string                              0x20000900   Data          20  device.o(.data)
    invoke_id                                0x20000918   Data           1  ptransfer.o(.data)
    transfer_len                             0x2000091a   Data           2  ptransfer.o(.data)
    header_len                               0x2000091c   Data           1  ptransfer.o(.data)
    table_bank                               0x20000920   Data          15  user_data.o(.data)
    timestart                                0x20000930   Data           4  user_data.o(.data)
    ora_current_sec                          0x20000934   Data           4  user_data.o(.data)
    time_since_1970                          0x20000938   Data           4  user_data.o(.data)
    output_raw                               0x2000093c   Data           4  user_data.o(.data)
    Instance                                 0x20000940   Data           2  user_data.o(.data)
    flag_E2_changed                          0x20000942   Data           1  user_data.o(.data)
    changed_index                            0x20000944   Data           4  user_data.o(.data)
    ind_passwords                            0x20000948   Data           1  user_data.o(.data)
    total_elements                           0x2000094c   Data           4  user_data.o(.data)
    group_data_length                        0x20000950   Data           4  user_data.o(.data)
    Code_total_length                        0x20000954   Data           4  user_data.o(.data)
    PRG_crc                                  0x20000958   Data           4  user_data.o(.data)
    free_mon_blocks                          0x2000095c   Data           1  user_data.o(.data)
    total_send_length                        0x20000960   Data           4  user_data.o(.data)
    num_of_time                              0x20000964   Data           1  user_data.o(.data)
    program_index                            0x20000965   Data           1  user_data.o(.data)
    timer_type                               0x20000966   Data           1  user_data.o(.data)
    timer_index                              0x20000967   Data           1  user_data.o(.data)
    number_of_network_points                 0x20000968   Data           1  user_data.o(.data)
    number_of_remote_points                  0x20000969   Data           1  user_data.o(.data)
    prog                                     0x2000096c   Data           4  user_data.o(.data)
    index_stack                              0x20000970   Data           4  user_data.o(.data)
    time_buf                                 0x20000974   Data           4  user_data.o(.data)
    cond                                     0x20000978   Data           4  user_data.o(.data)
    v                                        0x2000097c   Data           4  user_data.o(.data)
    value                                    0x20000980   Data           4  user_data.o(.data)
    op1                                      0x20000984   Data           4  user_data.o(.data)
    op2                                      0x20000988   Data           4  user_data.o(.data)
    n                                        0x2000098c   Data           4  user_data.o(.data)
    pn                                       0x20000990   Data           4  user_data.o(.data)
    mallco_dev                               0x20000994   Data          28  vmalloc.o(.data)
    PDUBuffer                                0x200009b0   Data         600  main.o(.bss)
    data_change                              0x20000c08   Data          44  inputs.o(.bss)
    AD_Value                                 0x20000c60   Data          44  inputs.o(.bss)
    uip_buf                                  0x20003558   Data        4098  uip.o(.bss)
    uip_conns                                0x2000455c   Data        1600  uip.o(.bss)
    uip_listenports                          0x20004b9c   Data          80  uip.o(.bss)
    uip_udp_conns                            0x20004bec   Data         640  uip.o(.bss)
    uip_stat                                 0x20004e6c   Data          52  uip.o(.bss)
    tcp_client_databuf                       0x20004f00   Data         500  tcp_client_demo.o(.bss)
    InformationStr                           0x200051e4   Data          60  udp_scan.o(.bss)
    test                                     0x20005220   Data          50  udp_scan.o(.bss)
    tcp_server_databuf                       0x2000537e   Data         500  tcp_modbus.o(.bss)
    tcp_server_sendbuf                       0x20005572   Data         500  tcp_modbus.o(.bss)
    i2c_test                                 0x20005768   Data          10  modbus.o(.bss)
    USART_RX_BUF                             0x20005772   Data         512  modbus.o(.bss)
    uart_send                                0x20005972   Data         512  modbus.o(.bss)
    modbus                                   0x20005b74   Data         644  modbus.o(.bss)
    AO_Present_Value                         0x20005e44   Data          32  ao.o(.bss)
    BO_Present_Value                         0x20005ea4   Data         192  bo.o(.bss)
    Handler_Transmit_Buffer                  0x20005f70   Data         626  txbuf.o(.bss)
    AV_Present_Value                         0x200063e8   Data         208  av.o(.bss)
    AI_Present_Value                         0x200064b8   Data          44  ai.o(.bss)
    wp_data                                  0x200064e4   Data         624  h_wp.o(.bss)
    mtu                                      0x200068e8   Data         630  bip.o(.bss)
    PDUBuffer_BIP                            0x20006b5e   Data         600  bip.o(.bss)
    info                                     0x20006dcc   Data         144  user_data.o(.bss)
    Panel_Info                               0x20006e5c   Data          22  user_data.o(.bss)
    Setting_Info                             0x20006e74   Data         100  user_data.o(.bss)
    input_raw                                0x20006ed8   Data          88  user_data.o(.bss)
    chip_info                                0x20006f30   Data          24  user_data.o(.bss)
    inputs                                   0x20006f48   Data        1056  user_data.o(.bss)
    outputs                                  0x20007368   Data          48  user_data.o(.bss)
    digi_units                               0x20007398   Data         200  user_data.o(.bss)
    passwords                                0x20007460   Data         416  user_data.o(.bss)
    totalizers                               0x20007600   Data          96  user_data.o(.bss)
    annual_routines                          0x20007660   Data         132  user_data.o(.bss)
    panelname                                0x200076e4   Data          20  user_data.o(.bss)
    stack                                    0x200076f8   Data          80  user_data.o(.bss)
    Receive_Buffer0                          0x20007748   Data          16  rs485.o(.bss)
    mem1base                                 0x20007758   Data        1024  vmalloc.o(.bss)
    mem1mapbase                              0x20007b58   Data          64  vmalloc.o(.bss)
    _random_number_data                      0x20007b98   Data         228  rand.o(.bss)
    __libspace_start                         0x20007c7c   Data          96  libspace.o(.bss)
    __temporary_stack_top$libspace           0x20007cdc   Data           0  libspace.o(.bss)
    mem2base                                 0x68000000   Data       204800  vmalloc.o(.ARM.__AT_0x68000000)
    mem2mapbase                              0x68032000   Data       12800  vmalloc.o(.ARM.__AT_0x68032000)



==============================================================================

Memory Map of the image

  Image Entry point : 0x08008131

  Load Region LR_IROM1 (Base: 0x08008000, Size: 0x0001a164, Max: 0x00038000, ABSOLUTE, COMPRESSED[0x00019c34])

    Execution Region ER_IROM1 (Base: 0x08008000, Size: 0x000197b4, Max: 0x00038000, ABSOLUTE)

    Base Addr    Size         Type   Attr      Idx    E Section Name        Object

    0x08008000   0x00000130   Data   RO          855    RESET               startup_stm32f10x_hd.o
    0x08008130   0x00000008   Code   RO         3186  * !!!main             c_w.l(__main.o)
    0x08008138   0x00000034   Code   RO         3543    !!!scatter          c_w.l(__scatter.o)
    0x0800816c   0x00000064   Code   RO         3541    !!dclz77c           c_w.l(__dclz77c.o)
    0x080081d0   0x0000001c   Code   RO         3545    !!handler_zi        c_w.l(__scatter_zi.o)
    0x080081ec   0x00000000   Code   RO         3142    .ARM.Collect$$_printf_percent$$00000000  c_w.l(_printf_percent.o)
    0x080081ec   0x00000006   Code   RO         3139    .ARM.Collect$$_printf_percent$$00000009  c_w.l(_printf_d.o)
    0x080081f2   0x00000006   Code   RO         3140    .ARM.Collect$$_printf_percent$$0000000A  c_w.l(_printf_u.o)
    0x080081f8   0x00000006   Code   RO         3136    .ARM.Collect$$_printf_percent$$00000013  c_w.l(_printf_c.o)
    0x080081fe   0x00000006   Code   RO         3137    .ARM.Collect$$_printf_percent$$00000014  c_w.l(_printf_s.o)
    0x08008204   0x00000004   Code   RO         3256    .ARM.Collect$$_printf_percent$$00000017  c_w.l(_printf_percent_end.o)
    0x08008208   0x00000002   Code   RO         3414    .ARM.Collect$$libinit$$00000000  c_w.l(libinit.o)
    0x0800820a   0x00000000   Code   RO         3268    .ARM.Collect$$libinit$$00000002  c_w.l(libinit2.o)
    0x0800820a   0x00000000   Code   RO         3271    .ARM.Collect$$libinit$$00000008  c_w.l(libinit2.o)
    0x0800820a   0x00000000   Code   RO         3273    .ARM.Collect$$libinit$$0000000A  c_w.l(libinit2.o)
    0x0800820a   0x00000004   Code   RO         3274    .ARM.Collect$$libinit$$0000000B  c_w.l(libinit2.o)
    0x0800820e   0x00000000   Code   RO         3275    .ARM.Collect$$libinit$$0000000C  c_w.l(libinit2.o)
    0x0800820e   0x00000006   Code   RO         3276    .ARM.Collect$$libinit$$0000000D  c_w.l(libinit2.o)
    0x08008214   0x00000000   Code   RO         3278    .ARM.Collect$$libinit$$0000000F  c_w.l(libinit2.o)
    0x08008214   0x0000000c   Code   RO         3279    .ARM.Collect$$libinit$$00000010  c_w.l(libinit2.o)
    0x08008220   0x00000000   Code   RO         3280    .ARM.Collect$$libinit$$00000011  c_w.l(libinit2.o)
    0x08008220   0x00000000   Code   RO         3282    .ARM.Collect$$libinit$$00000013  c_w.l(libinit2.o)
    0x08008220   0x0000000a   Code   RO         3283    .ARM.Collect$$libinit$$00000014  c_w.l(libinit2.o)
    0x0800822a   0x00000000   Code   RO         3284    .ARM.Collect$$libinit$$00000015  c_w.l(libinit2.o)
    0x0800822a   0x00000000   Code   RO         3286    .ARM.Collect$$libinit$$00000017  c_w.l(libinit2.o)
    0x0800822a   0x00000000   Code   RO         3288    .ARM.Collect$$libinit$$00000019  c_w.l(libinit2.o)
    0x0800822a   0x00000000   Code   RO         3290    .ARM.Collect$$libinit$$0000001B  c_w.l(libinit2.o)
    0x0800822a   0x00000000   Code   RO         3292    .ARM.Collect$$libinit$$0000001D  c_w.l(libinit2.o)
    0x0800822a   0x00000000   Code   RO         3294    .ARM.Collect$$libinit$$0000001F  c_w.l(libinit2.o)
    0x0800822a   0x00000000   Code   RO         3296    .ARM.Collect$$libinit$$00000021  c_w.l(libinit2.o)
    0x0800822a   0x00000000   Code   RO         3298    .ARM.Collect$$libinit$$00000023  c_w.l(libinit2.o)
    0x0800822a   0x00000000   Code   RO         3302    .ARM.Collect$$libinit$$0000002A  c_w.l(libinit2.o)
    0x0800822a   0x00000000   Code   RO         3304    .ARM.Collect$$libinit$$0000002C  c_w.l(libinit2.o)
    0x0800822a   0x00000000   Code   RO         3306    .ARM.Collect$$libinit$$0000002E  c_w.l(libinit2.o)
    0x0800822a   0x00000000   Code   RO         3308    .ARM.Collect$$libinit$$00000030  c_w.l(libinit2.o)
    0x0800822a   0x00000002   Code   RO         3309    .ARM.Collect$$libinit$$00000031  c_w.l(libinit2.o)
    0x0800822c   0x00000002   Code   RO         3476    .ARM.Collect$$libshutdown$$00000000  c_w.l(libshutdown.o)
    0x0800822e   0x00000000   Code   RO         3501    .ARM.Collect$$libshutdown$$00000003  c_w.l(libshutdown2.o)
    0x0800822e   0x00000000   Code   RO         3504    .ARM.Collect$$libshutdown$$00000006  c_w.l(libshutdown2.o)
    0x0800822e   0x00000000   Code   RO         3507    .ARM.Collect$$libshutdown$$00000009  c_w.l(libshutdown2.o)
    0x0800822e   0x00000000   Code   RO         3509    .ARM.Collect$$libshutdown$$0000000B  c_w.l(libshutdown2.o)
    0x0800822e   0x00000000   Code   RO         3512    .ARM.Collect$$libshutdown$$0000000E  c_w.l(libshutdown2.o)
    0x0800822e   0x00000002   Code   RO         3513    .ARM.Collect$$libshutdown$$0000000F  c_w.l(libshutdown2.o)
    0x08008230   0x00000000   Code   RO         3234    .ARM.Collect$$rtentry$$00000000  c_w.l(rtentry.o)
    0x08008230   0x00000000   Code   RO         3325    .ARM.Collect$$rtentry$$00000002  c_w.l(rtentry2.o)
    0x08008230   0x00000006   Code   RO         3337    .ARM.Collect$$rtentry$$00000004  c_w.l(rtentry4.o)
    0x08008236   0x00000000   Code   RO         3327    .ARM.Collect$$rtentry$$00000009  c_w.l(rtentry2.o)
    0x08008236   0x00000004   Code   RO         3328    .ARM.Collect$$rtentry$$0000000A  c_w.l(rtentry2.o)
    0x0800823a   0x00000000   Code   RO         3330    .ARM.Collect$$rtentry$$0000000C  c_w.l(rtentry2.o)
    0x0800823a   0x00000008   Code   RO         3331    .ARM.Collect$$rtentry$$0000000D  c_w.l(rtentry2.o)
    0x08008242   0x00000002   Code   RO         3417    .ARM.Collect$$rtexit$$00000000  c_w.l(rtexit.o)
    0x08008244   0x00000000   Code   RO         3442    .ARM.Collect$$rtexit$$00000002  c_w.l(rtexit2.o)
    0x08008244   0x00000004   Code   RO         3443    .ARM.Collect$$rtexit$$00000003  c_w.l(rtexit2.o)
    0x08008248   0x00000006   Code   RO         3444    .ARM.Collect$$rtexit$$00000004  c_w.l(rtexit2.o)
    0x0800824e   0x00000002   PAD
    0x08008250   0x0000008c   Code   RO         1163    .emb_text           port.o
    0x080082dc   0x00000034   Code   RO         3151    .emb_text           c_w.l(rand.o)
    0x08008310   0x000010e0   Code   RO            1    .text               main.o
    0x080093f0   0x000000c0   Code   RO          447    .text               stm32f10x_it.o
    0x080094b0   0x000001dc   Code   RO          466    .text               system_stm32f10x.o
    0x0800968c   0x00000dc8   Code   RO          484    .text               modbus_regop.o
    0x0800a454   0x000011d4   Code   RO          587    .text               modbus_response.o
    0x0800b628   0x000000dc   Code   RO          609    .text               misc.o
    0x0800b704   0x0000044e   Code   RO          621    .text               stm32f10x_adc.o
    0x0800bb52   0x00000002   PAD
    0x0800bb54   0x0000011c   Code   RO          672    .text               stm32f10x_exti.o
    0x0800bc70   0x00000358   Code   RO          696    .text               stm32f10x_gpio.o
    0x0800bfc8   0x000003a4   Code   RO          723    .text               stm32f10x_rcc.o
    0x0800c36c   0x0000030c   Code   RO          764    .text               stm32f10x_spi.o
    0x0800c678   0x00000e1a   Code   RO          776    .text               stm32f10x_tim.o
    0x0800d492   0x00000002   PAD
    0x0800d494   0x00000408   Code   RO          788    .text               stm32f10x_usart.o
    0x0800d89c   0x00000040   Code   RO          856    .text               startup_stm32f10x_hd.o
    0x0800d8dc   0x00000208   Code   RO          860    .text               led.o
    0x0800dae4   0x0000029c   Code   RO          878    .text               myiic.o
    0x0800dd80   0x00000198   Code   RO          890    .text               24cxx.o
    0x0800df18   0x00000218   Code   RO          902    .text               spi.o
    0x0800e130   0x0000012c   Code   RO          963    .text               timerx.o
    0x0800e25c   0x00000484   Code   RO          982    .text               enc28j60.o
    0x0800e6e0   0x0000052c   Code   RO         1058    .text               inputs.o
    0x0800ec0c   0x00000048   Code   RO         1090    .text               key.o
    0x0800ec54   0x000009d4   Code   RO         1108    .text               tasks.o
    0x0800f628   0x00000094   Code   RO         1136    .text               list.o
    0x0800f6bc   0x000000b4   Code   RO         1164    .text               port.o
    0x0800f770   0x00000118   Code   RO         1184    .text               heap_2.o
    0x0800f888   0x00000100   Code   RO         1199    .text               usart.o
    0x0800f988   0x000000e4   Code   RO         1222    .text               delay.o
    0x0800fa6c   0x0000042c   Code   RO         1287    .text               psock.o
    0x0800fe98   0x00000040   Code   RO         1311    .text               timer.o
    0x0800fed8   0x00001784   Code   RO         1323    .text               uip.o
    0x0801165c   0x0000040c   Code   RO         1350    .text               uip_arp.o
    0x08011a68   0x0000000c   Code   RO         1434    .text               clock-arch.o
    0x08011a74   0x000001fc   Code   RO         1447    .text               tapdev.o
    0x08011c70   0x0000023c   Code   RO         1462    .text               tcp_client_demo.o
    0x08011eac   0x00000058   Code   RO         1490    .text               tcp_demo.o
    0x08011f04   0x0000051c   Code   RO         1532    .text               dhcpc.o
    0x08012420   0x00000434   Code   RO         1556    .text               resolv.o
    0x08012854   0x000009f0   Code   RO         1578    .text               httpd.o
    0x08013244   0x00000274   Code   RO         1600    .text               httpd-cgi.o
    0x080134b8   0x000000bc   Code   RO         1616    .text               httpd-fs.o
    0x08013574   0x000004f8   Code   RO         1639    .text               udp_scan.o
    0x08013a6c   0x00000204   Code   RO         1658    .text               tcp_modbus.o
    0x08013c70   0x00000600   Code   RO         1689    .text               modbus.o
    0x08014270   0x00000074   Code   RO         1727    .text               crc.o
    0x080142e4   0x000002a4   Code   RO         1746    .text               filter.o
    0x08014588   0x000010ca   Code   RO         1763    .text               bacdcode.o
    0x08015652   0x00000174   Code   RO         1793    .text               bacreal.o
    0x080157c6   0x00000002   PAD
    0x080157c8   0x000001cc   Code   RO         1817    .text               bacint.o
    0x08015994   0x000000ca   Code   RO         1859    .text               bacaddr.o
    0x08015a5e   0x00000002   PAD
    0x08015a60   0x00000090   Code   RO         1926    .text               datalink.o
    0x08015af0   0x000005b4   Code   RO         1958    .text               datetime.o
    0x080160a4   0x000001c0   Code   RO         1981    .text               dcc.o
    0x08016264   0x000000e6   Code   RO         2013    .text               bacerror.o
    0x0801634a   0x00000060   Code   RO         2028    .text               h_npdu.o
    0x080163aa   0x00000002   PAD
    0x080163ac   0x000004b8   Code   RO         2097    .text               ao.o
    0x08016864   0x00000492   Code   RO         2140    .text               bi.o
    0x08016cf6   0x00000002   PAD
    0x08016cf8   0x000004fc   Code   RO         2160    .text               bo.o
    0x080171f4   0x00000f54   Code   RO         2185    .text               dlmstp.o
    0x08018148   0x00000014   Code   RO         2248    .text               bacnettimer.o
    0x0801815c   0x00000138   Code   RO         2263    .text               s_iam.o
    0x08018294   0x00000066   Code   RO         2352    .text               abort.o
    0x080182fa   0x000002c8   Code   RO         2367    .text               rp.o
    0x080185c2   0x00000002   PAD
    0x080185c4   0x0000006c   Code   RO         2382    .text               noserv.o
    0x08018630   0x00000078   Code   RO         2436    .text               reject.o
    0x080186a8   0x00000188   Code   RO         2448    .text               fifo.o
    0x08018830   0x00000064   Code   RO         2460    .text               s_upt.o
    0x08018894   0x000001d0   Code   RO         2473    .text               bvlc.o
    0x08018a64   0x00000ae8   Code   RO         2496    .text               bacapp.o
    0x0801954c   0x00000418   Code   RO         2518    .text               av.o
    0x08019964   0x000002c4   Code   RO         2547    .text               ai.o
    0x08019c28   0x00000220   Code   RO         2566    .text               h_wp.o
    0x08019e48   0x00000304   Code   RO         2581    .text               npdu.o
    0x0801a14c   0x0000017c   Code   RO         2596    .text               iam.o
    0x0801a2c8   0x000000da   Code   RO         2620    .text               whois.o
    0x0801a3a2   0x00000002   PAD
    0x0801a3a4   0x000004fc   Code   RO         2635    .text               apdu.o
    0x0801a8a0   0x000001fa   Code   RO         2654    .text               wp.o
    0x0801aa9a   0x00000002   PAD
    0x0801aa9c   0x00000298   Code   RO         2666    .text               h_rp.o
    0x0801ad34   0x00000670   Code   RO         2681    .text               bacstr.o
    0x0801b3a4   0x00000060   Code   RO         2699    .text               h_whois.o
    0x0801b404   0x00000064   Code   RO         2714    .text               bacnetcrc.o
    0x0801b468   0x00000364   Code   RO         2729    .text               bip.o
    0x0801b7cc   0x0000068c   Code   RO         2763    .text               device.o
    0x0801be58   0x000005d6   Code   RO         2783    .text               ptransfer.o
    0x0801c42e   0x00000002   PAD
    0x0801c430   0x000002f4   Code   RO         2862    .text               user_data.o
    0x0801c724   0x000000c0   Code   RO         2940    .text               rs485.o
    0x0801c7e4   0x00000230   Code   RO         2996    .text               vmalloc.o
    0x0801ca14   0x00000002   Code   RO         3071    .text               c_w.l(use_no_semi_2.o)
    0x0801ca16   0x00000002   PAD
    0x0801ca18   0x00000018   Code   RO         3075    .text               c_w.l(__2printf.o)
    0x0801ca30   0x0000002c   Code   RO         3077    .text               c_w.l(__2sprintf.o)
    0x0801ca5c   0x00000038   Code   RO         3079    .text               c_w.l(__2snprintf.o)
    0x0801ca94   0x00000052   Code   RO         3089    .text               c_w.l(_printf_pad.o)
    0x0801cae6   0x00000052   Code   RO         3091    .text               c_w.l(_printf_str.o)
    0x0801cb38   0x00000078   Code   RO         3093    .text               c_w.l(_printf_dec.o)
    0x0801cbb0   0x00000160   Code   RO         3131    .text               c_w.l(__printf_ss_wp.o)
    0x0801cd10   0x0000003c   Code   RO         3143    .text               c_w.l(__0sscanf.o)
    0x0801cd4c   0x00000150   Code   RO         3145    .text               c_w.l(_scanf_int.o)
    0x0801ce9c   0x00000070   Code   RO         3147    .text               c_w.l(strtol.o)
    0x0801cf0c   0x00000072   Code   RO         3149    .text               c_w.l(strtoul.o)
    0x0801cf7e   0x00000002   PAD
    0x0801cf80   0x0000003c   Code   RO         3152    .text               c_w.l(rand.o)
    0x0801cfbc   0x00000014   Code   RO         3156    .text               c_w.l(strchr.o)
    0x0801cfd0   0x00000024   Code   RO         3158    .text               c_w.l(strstr.o)
    0x0801cff4   0x00000058   Code   RO         3160    .text               c_w.l(memcmp.o)
    0x0801d04c   0x00000048   Code   RO         3162    .text               c_w.l(strcpy.o)
    0x0801d094   0x00000016   Code   RO         3164    .text               c_w.l(strrchr.o)
    0x0801d0aa   0x0000003e   Code   RO         3166    .text               c_w.l(strlen.o)
    0x0801d0e8   0x00000096   Code   RO         3168    .text               c_w.l(strncmp.o)
    0x0801d17e   0x0000008a   Code   RO         3170    .text               c_w.l(rt_memcpy_v6.o)
    0x0801d208   0x00000064   Code   RO         3172    .text               c_w.l(rt_memcpy_w.o)
    0x0801d26c   0x00000010   Code   RO         3174    .text               c_w.l(aeabi_memset.o)
    0x0801d27c   0x00000044   Code   RO         3176    .text               c_w.l(rt_memclr.o)
    0x0801d2c0   0x0000004e   Code   RO         3178    .text               c_w.l(rt_memclr_w.o)
    0x0801d30e   0x00000056   Code   RO         3180    .text               c_w.l(strncpy.o)
    0x0801d364   0x00000080   Code   RO         3182    .text               c_w.l(strcmpv7m.o)
    0x0801d3e4   0x00000006   Code   RO         3184    .text               c_w.l(heapauxi.o)
    0x0801d3ea   0x00000002   Code   RO         3232    .text               c_w.l(use_no_semi.o)
    0x0801d3ec   0x00000010   Code   RO         3235    .text               c_w.l(rt_ctype_table.o)
    0x0801d3fc   0x00000008   Code   RO         3240    .text               c_w.l(rt_errno_addr_intlibspace.o)
    0x0801d404   0x000000b8   Code   RO         3242    .text               c_w.l(_printf_intcommon.o)
    0x0801d4bc   0x00000030   Code   RO         3246    .text               c_w.l(_printf_char_common.o)
    0x0801d4ec   0x0000000a   Code   RO         3248    .text               c_w.l(_sputc.o)
    0x0801d4f6   0x00000010   Code   RO         3250    .text               c_w.l(_snputc.o)
    0x0801d506   0x0000002c   Code   RO         3252    .text               c_w.l(_printf_char.o)
    0x0801d532   0x00000002   PAD
    0x0801d534   0x00000024   Code   RO         3254    .text               c_w.l(_printf_char_file.o)
    0x0801d558   0x0000001c   Code   RO         3257    .text               c_w.l(_chval.o)
    0x0801d574   0x0000002c   Code   RO         3259    .text               c_w.l(scanf_char.o)
    0x0801d5a0   0x00000040   Code   RO         3261    .text               c_w.l(_sgetc.o)
    0x0801d5e0   0x0000009e   Code   RO         3263    .text               c_w.l(_strtoul.o)
    0x0801d67e   0x00000002   PAD
    0x0801d680   0x000000a0   Code   RO         3265    .text               c_w.l(strtod.o)
    0x0801d720   0x00000008   Code   RO         3321    .text               c_w.l(libspace.o)
    0x0801d728   0x00000008   Code   RO         3342    .text               c_w.l(rt_locale_intlibspace.o)
    0x0801d730   0x00000012   Code   RO         3346    .text               c_w.l(isspace.o)
    0x0801d742   0x00000002   PAD
    0x0801d744   0x00000370   Code   RO         3352    .text               c_w.l(_scanf.o)
    0x0801dab4   0x000000e4   Code   RO         3354    .text               c_w.l(bigflt0.o)
    0x0801db98   0x00000008   Code   RO         3379    .text               c_w.l(ferror.o)
    0x0801dba0   0x0000004a   Code   RO         3399    .text               c_w.l(sys_stackheap_outer.o)
    0x0801dbea   0x00000002   PAD
    0x0801dbec   0x000004a4   Code   RO         3401    .text               c_w.l(scanf_fp.o)
    0x0801e090   0x0000000c   Code   RO         3403    .text               c_w.l(exit.o)
    0x0801e09c   0x00000016   Code   RO         3450    .text               c_w.l(_rserrno.o)
    0x0801e0b2   0x00000002   PAD
    0x0801e0b4   0x00000314   Code   RO         3452    .text               c_w.l(scanf_hexfp.o)
    0x0801e3c8   0x0000013c   Code   RO         3454    .text               c_w.l(scanf_infnan.o)
    0x0801e504   0x00000026   Code   RO         3468    .text               c_w.l(llshl.o)
    0x0801e52a   0x00000338   Code   RO         3367    CL$$btod_div_common  c_w.l(btod.o)
    0x0801e862   0x00000002   PAD
    0x0801e864   0x00000054   Code   RO         3365    CL$$btod_e2d        c_w.l(btod.o)
    0x0801e8b8   0x000000c6   Code   RO         3364    CL$$btod_e2e        c_w.l(btod.o)
    0x0801e97e   0x00000028   Code   RO         3361    CL$$btod_ediv       c_w.l(btod.o)
    0x0801e9a6   0x00000028   Code   RO         3363    CL$$btod_edivd      c_w.l(btod.o)
    0x0801e9ce   0x00000028   Code   RO         3360    CL$$btod_emul       c_w.l(btod.o)
    0x0801e9f6   0x00000028   Code   RO         3362    CL$$btod_emuld      c_w.l(btod.o)
    0x0801ea1e   0x00000244   Code   RO         3366    CL$$btod_mult_common  c_w.l(btod.o)
    0x0801ec62   0x00000002   PAD
    0x0801ec64   0x00000010   Code   RO         3516    i.__mathlib_dbl_underflow  m_ws.l(dunder.o)
    0x0801ec74   0x00000010   Code   RO         3434    i.__mathlib_narrow  m_ws.l(narrow.o)
    0x0801ec84   0x00000088   Code   RO         3435    i.__mathlib_tofloat  m_ws.l(narrow.o)
    0x0801ed0c   0x00000016   Code   RO         3484    i.__support_ldexp   m_ws.l(ldexp.o)
    0x0801ed22   0x0000000e   Code   RO         3126    i._is_digit         c_w.l(__printf_wp.o)
    0x0801ed30   0x00000058   Code   RO         3465    i.frexp             m_ws.l(frexp.o)
    0x0801ed88   0x0000007e   Code   RO         3485    i.ldexp             m_ws.l(ldexp.o)
    0x0801ee06   0x0000001c   Code   RO         3229    i.strtod            m_ws.l(strtod.o)
    0x0801ee22   0x00000002   PAD
    0x0801ee24   0x0000002c   Code   RO         3384    locale$$code        c_w.l(lc_ctype_c.o)
    0x0801ee50   0x0000002c   Code   RO         3387    locale$$code        c_w.l(lc_numeric_c.o)
    0x0801ee7c   0x00000062   Code   RO         3188    x$fpl$d2f           fz_ws.l(d2f.o)
    0x0801eede   0x00000002   PAD
    0x0801eee0   0x00000010   Code   RO         3514    x$fpl$dcheck1       fz_ws.l(dcheck1.o)
    0x0801eef0   0x00000018   Code   RO         3477    x$fpl$dcmpinf       fz_ws.l(dcmpi.o)
    0x0801ef08   0x00000078   Code   RO         3460    x$fpl$deqf          fz_ws.l(deqf.o)
    0x0801ef80   0x00000078   Code   RO         3479    x$fpl$dleqf         fz_ws.l(dleqf.o)
    0x0801eff8   0x0000009c   Code   RO         3310    x$fpl$dnaninf       fz_ws.l(dnaninf.o)
    0x0801f094   0x0000006c   Code   RO         3462    x$fpl$drleqf        fz_ws.l(drleqf.o)
    0x0801f100   0x00000018   Code   RO         3314    x$fpl$fcmpinf       fz_ws.l(fcmpi.o)
    0x0801f118   0x00000184   Code   RO         3203    x$fpl$fdiv          fz_ws.l(fdiv.o)
    0x0801f29c   0x00000036   Code   RO         3206    x$fpl$ffix          fz_ws.l(ffix.o)
    0x0801f2d2   0x00000002   PAD
    0x0801f2d4   0x0000003e   Code   RO         3210    x$fpl$ffixu         fz_ws.l(ffixu.o)
    0x0801f312   0x00000002   PAD
    0x0801f314   0x00000030   Code   RO         3215    x$fpl$fflt          fz_ws.l(fflt_clz.o)
    0x0801f344   0x00000026   Code   RO         3214    x$fpl$ffltu         fz_ws.l(fflt_clz.o)
    0x0801f36a   0x00000002   PAD
    0x0801f36c   0x00000068   Code   RO         3220    x$fpl$fleqf         fz_ws.l(fleqf.o)
    0x0801f3d4   0x00000102   Code   RO         3222    x$fpl$fmul          fz_ws.l(fmul.o)
    0x0801f4d6   0x0000008c   Code   RO         3316    x$fpl$fnaninf       fz_ws.l(fnaninf.o)
    0x0801f562   0x0000000a   Code   RO         3318    x$fpl$fretinf       fz_ws.l(fretinf.o)
    0x0801f56c   0x00000062   Code   RO         3224    x$fpl$frleqf        fz_ws.l(frleqf.o)
    0x0801f5ce   0x00000064   Code   RO         3535    x$fpl$retnan        fz_ws.l(retnan.o)
    0x0801f632   0x0000005c   Code   RO         3481    x$fpl$scalbn        fz_ws.l(scalbn.o)
    0x0801f68e   0x00000004   Code   RO         3395    x$fpl$scanf1        fz_ws.l(scanf1.o)
    0x0801f692   0x00000008   Code   RO         3428    x$fpl$scanf2        fz_ws.l(scanf2.o)
    0x0801f69a   0x00000030   Code   RO         3537    x$fpl$trapveneer    fz_ws.l(trapv.o)
    0x0801f6ca   0x00000000   Code   RO         3320    x$fpl$usenofp       fz_ws.l(usenofp.o)
    0x0801f6ca   0x00000002   PAD
    0x0801f6cc   0x000000b0   Data   RO         1060    .constdata          inputs.o
    0x0801f77c   0x00000008   Data   RO         1325    .constdata          uip.o
    0x0801f784   0x0000000a   Data   RO         1352    .constdata          uip_arp.o
    0x0801f78e   0x00000008   Data   RO         1534    .constdata          dhcpc.o
    0x0801f796   0x0000024a   Data   RO         1571    .constdata          http-strings.o
    0x0801f9e0   0x000000cd   Data   RO         1601    .constdata          httpd-cgi.o
    0x0801faad   0x00000003   PAD
    0x0801fab0   0x000012dc   Data   RO         1618    .constdata          httpd-fs.o
    0x08020d8c   0x00000200   Data   RO         1728    .constdata          crc.o
    0x08020f8c   0x0000002a   Data   RO         1748    .constdata          filter.o
    0x08020fb6   0x00000002   PAD
    0x08020fb8   0x00000034   Data   RO         1959    .constdata          datetime.o
    0x08020fec   0x00000030   Data   RO         2142    .constdata          bi.o
    0x0802101c   0x00000040   Data   RO         2162    .constdata          bo.o
    0x0802105c   0x00000340   Data   RO         2520    .constdata          av.o
    0x0802139c   0x00000100   Data   RO         2682    .constdata          bacstr.o
    0x0802149c   0x00000018   Data   RO         3000    .constdata          vmalloc.o
    0x080214b4   0x00000094   Data   RO         3355    .constdata          c_w.l(bigflt0.o)
    0x08021548   0x000000f3   Data   RO         1579    .conststring        httpd.o
    0x0802163b   0x00000025   Data   RO         1602    .conststring        httpd-cgi.o
    0x08021660   0x00000020   Data   RO         3539    Region$$Table       anon$$obj.o
    0x08021680   0x00000008   Data   RO         3425    c$$dinf             fz_ws.l(fpconst.o)
    0x08021688   0x00000110   Data   RO         3383    locale$$data        c_w.l(lc_ctype_c.o)
    0x08021798   0x0000001c   Data   RO         3386    locale$$data        c_w.l(lc_numeric_c.o)


    Execution Region RW_IRAM1 (Base: 0x20000000, Size: 0x000082e0, Max: 0x0000c000, ABSOLUTE, COMPRESSED[0x00000480])

    Base Addr    Size         Type   Attr      Idx    E Section Name        Object

    0x20000000   0x00000017   Data   RW            3    .data               main.o
    0x20000017   0x00000001   PAD
    0x20000018   0x00000014   Data   RW          467    .data               system_stm32f10x.o
    0x2000002c   0x00000004   Data   RW          485    .data               modbus_regop.o
    0x20000030   0x00000008   Data   RW          588    .data               modbus_response.o
    0x20000038   0x00000014   Data   RW          724    .data               stm32f10x_rcc.o
    0x2000004c   0x0000000c   Data   RW          861    .data               led.o
    0x20000058   0x00000008   Data   RW          964    .data               timerx.o
    0x20000060   0x00000008   Data   RW          983    .data               enc28j60.o
    0x20000068   0x0000002d   Data   RW         1061    .data               inputs.o
    0x20000095   0x00000003   PAD
    0x20000098   0x0000003c   Data   RW         1110    .data               tasks.o
    0x200000d4   0x00000004   Data   RW         1165    .data               port.o
    0x200000d8   0x00000018   Data   RW         1186    .data               heap_2.o
    0x200000f0   0x00000008   Data   RW         1200    .data               usart.o
    0x200000f8   0x00000004   Data   RW         1223    .data               delay.o
    0x200000fc   0x0000003c   Data   RW         1326    .data               uip.o
    0x20000138   0x00000008   Data   RW         1353    .data               uip_arp.o
    0x20000140   0x00000001   Data   RW         1464    .data               tcp_client_demo.o
    0x20000141   0x00000003   PAD
    0x20000144   0x00000014   Data   RW         1558    .data               resolv.o
    0x20000158   0x0000000c   Data   RW         1580    .data               httpd.o
    0x20000164   0x00000034   Data   RW         1603    .data               httpd-cgi.o
    0x20000198   0x00000689   Data   RW         1619    .data               httpd-fs.o
    0x20000821   0x00000003   Data   RW         1641    .data               udp_scan.o
    0x20000824   0x00000004   Data   RW         1660    .data               tcp_modbus.o
    0x20000828   0x00000011   Data   RW         1691    .data               modbus.o
    0x20000839   0x00000002   Data   RW         1729    .data               crc.o
    0x2000083b   0x00000001   Data   RW         1749    .data               filter.o
    0x2000083c   0x00000005   Data   RW         1982    .data               dcc.o
    0x20000841   0x00000002   Data   RW         2099    .data               ao.o
    0x20000843   0x00000015   Data   RW         2143    .data               bi.o
    0x20000858   0x00000034   Data   RW         2187    .data               dlmstp.o
    0x2000088c   0x00000002   Data   RW         2249    .data               bacnettimer.o
    0x2000088e   0x00000002   Data   RW         2475    .data               bvlc.o
    0x20000890   0x0000000c   Data   RW         2497    .data               bacapp.o
    0x2000089c   0x00000038   Data   RW         2637    .data               apdu.o
    0x200008d4   0x00000001   Data   RW         2700    .data               h_whois.o
    0x200008d5   0x00000003   PAD
    0x200008d8   0x00000026   Data   RW         2731    .data               bip.o
    0x200008fe   0x00000002   PAD
    0x20000900   0x00000018   Data   RW         2765    .data               device.o
    0x20000918   0x00000005   Data   RW         2784    .data               ptransfer.o
    0x2000091d   0x00000003   PAD
    0x20000920   0x00000074   Data   RW         2864    .data               user_data.o
    0x20000994   0x0000001c   Data   RW         3001    .data               vmalloc.o
    0x200009b0   0x00000258   Zero   RW            2    .bss                main.o
    0x20000c08   0x00000084   Zero   RW         1059    .bss                inputs.o
    0x20000c8c   0x000000c8   Zero   RW         1109    .bss                tasks.o
    0x20000d54   0x00000004   PAD
    0x20000d58   0x00002800   Zero   RW         1185    .bss                heap_2.o
    0x20003558   0x00001948   Zero   RW         1324    .bss                uip.o
    0x20004ea0   0x00000060   Zero   RW         1351    .bss                uip_arp.o
    0x20004f00   0x000001f4   Zero   RW         1463    .bss                tcp_client_demo.o
    0x200050f4   0x00000034   Zero   RW         1533    .bss                dhcpc.o
    0x20005128   0x000000a8   Zero   RW         1557    .bss                resolv.o
    0x200051d0   0x00000014   Zero   RW         1617    .bss                httpd-fs.o
    0x200051e4   0x0000019a   Zero   RW         1640    .bss                udp_scan.o
    0x2000537e   0x000003e8   Zero   RW         1659    .bss                tcp_modbus.o
    0x20005766   0x00000002   PAD
    0x20005768   0x00000690   Zero   RW         1690    .bss                modbus.o
    0x20005df8   0x0000002c   Zero   RW         1747    .bss                filter.o
    0x20005e24   0x00000040   Zero   RW         2098    .bss                ao.o
    0x20005e64   0x00000020   Zero   RW         2141    .bss                bi.o
    0x20005e84   0x000000ec   Zero   RW         2161    .bss                bo.o
    0x20005f70   0x00000272   Zero   RW         2176    .bss                txbuf.o
    0x200061e2   0x000001f4   Zero   RW         2186    .bss                dlmstp.o
    0x200063d6   0x00000002   PAD
    0x200063d8   0x00000010   Zero   RW         2474    .bss                bvlc.o
    0x200063e8   0x000000d0   Zero   RW         2519    .bss                av.o
    0x200064b8   0x0000002c   Zero   RW         2548    .bss                ai.o
    0x200064e4   0x00000270   Zero   RW         2567    .bss                h_wp.o
    0x20006754   0x00000194   Zero   RW         2636    .bss                apdu.o
    0x200068e8   0x000004ce   Zero   RW         2730    .bss                bip.o
    0x20006db6   0x00000014   Zero   RW         2764    .bss                device.o
    0x20006dca   0x00000002   PAD
    0x20006dcc   0x0000097c   Zero   RW         2863    .bss                user_data.o
    0x20007748   0x00000010   Zero   RW         2941    .bss                rs485.o
    0x20007758   0x00000440   Zero   RW         2999    .bss                vmalloc.o
    0x20007b98   0x000000e4   Zero   RW         3153    .bss                c_w.l(rand.o)
    0x20007c7c   0x00000060   Zero   RW         3322    .bss                c_w.l(libspace.o)
    0x20007cdc   0x00000004   PAD
    0x20007ce0   0x00000200   Zero   RW          854    HEAP                startup_stm32f10x_hd.o
    0x20007ee0   0x00000400   Zero   RW          853    STACK               startup_stm32f10x_hd.o



  Load Region LR$$.ARM.__AT_0x68000000 (Base: 0x68000000, Size: 0x00000000, Max: 0x00032000, ABSOLUTE)

    Execution Region ER$$.ARM.__AT_0x68000000 (Base: 0x68000000, Size: 0x00032000, Max: 0x00032000, ABSOLUTE, UNINIT)

    Base Addr    Size         Type   Attr      Idx    E Section Name        Object

    0x68000000   0x00032000   Zero   RW         2997    .ARM.__AT_0x68000000  vmalloc.o



  Load Region LR$$.ARM.__AT_0x68032000 (Base: 0x68032000, Size: 0x00000000, Max: 0x00003200, ABSOLUTE)

    Execution Region ER$$.ARM.__AT_0x68032000 (Base: 0x68032000, Size: 0x00003200, Max: 0x00003200, ABSOLUTE, UNINIT)

    Base Addr    Size         Type   Attr      Idx    E Section Name        Object

    0x68032000   0x00003200   Zero   RW         2998    .ARM.__AT_0x68032000  vmalloc.o


==============================================================================

Image component sizes


      Code (inc. data)   RO Data    RW Data    ZI Data      Debug   Object Name

       408          8          0          0          0       2582   24cxx.o
       102          6          0          0          0       1618   abort.o
       708         14          0          0         44       4800   ai.o
      1208         26          0          2         64       7475   ao.o
      1276        180          0         56        404       6417   apdu.o
      1048         24        832          0        208       3956   av.o
       202          0          0          0          0       1458   bacaddr.o
      2792        152          0         12          0       9364   bacapp.o
      4298         14          0          0          0      26814   bacdcode.o
       230          0          0          0          0       2140   bacerror.o
       460          6          0          0          0       3712   bacint.o
       100          0          0          0          0        788   bacnetcrc.o
        20          4          0          2          0       1227   bacnettimer.o
         0          0          0          0          0       2104   bacpropstates.o
       372          0          0          0          0      41854   bacreal.o
      1648         18        256          0          0      11845   bacstr.o
      1170         58         48         21         32       6573   bi.o
       868         42          0         38       1230       9235   bip.o
      1276         62         64          0        236       4944   bo.o
         0          0          0          0          0        692   bv.o
       464         28          0          2         16       5199   bvlc.o
        12          6          0          0          0        409   clock-arch.o
         0          0          0          0          0         32   cortexm3_macro_rvds.o
       116         18        512          2          0       1404   crc.o
       144          4          0          0          0       2656   datalink.o
      1460          4         52          0          0       9495   datetime.o
       448          8          0          5          0       3973   dcc.o
       228         10          0          4          0       1139   delay.o
      1676         76          0         24         20       4694   device.o
      1308         46          8          0         52      12642   dhcpc.o
      3924        302          0         52        500      10786   dlmstp.o
      1156         16          0          8          0       4302   enc28j60.o
       392          0          0          0          0       3397   fifo.o
       676         48         42          1         44       2484   filter.o
        96          0          0          0          0       2507   h_npdu.o
       664        130          0          0          0       2797   h_rp.o
        96          8          0          1          0       1410   h_whois.o
       544         22          0          0        624       2193   h_wp.o
       280         22          0         24      10240       3324   heap_2.o
         0          0        586          0          0       2165   http-strings.o
       628         54        242         52          0       3360   httpd-cgi.o
       188         10       4828       1673         20       3886   httpd-fs.o
      2544        312        243         12          0       5354   httpd.o
       380          0          0          0          0       1985   iam.o
      1324         64        176         45        132       3660   inputs.o
        72          4          0          0          0        664   key.o
       520         40          0         12          0       1337   led.o
       148          0          0          0          0       1689   list.o
      4320        180          0         23        600     313796   main.o
       220         20          0          0          0       1721   misc.o
      1536        100          0         17       1680      22636   modbus.o
      3528         86          0          4          0     232311   modbus_regop.o
      4564        180          0          8          0       4936   modbus_response.o
       668         26          0          0          0       1828   myiic.o
       108         10          0          0          0       3423   noserv.o
       772          0          0          0          0       3459   npdu.o
       320         26          0          4          0       2885   port.o
      1068         38          0          0          0      12894   psock.o
      1494         30          0          5          0       6669   ptransfer.o
       120         12          0          0          0       1577   reject.o
      1076        122          0         20        168       4434   resolv.o
       712          0          0          0          0       3927   rp.o
       192         20          0          0         16       2383   rs485.o
       312          4          0          0          0       3452   s_iam.o
       100         14          0          0          0       1302   s_upt.o
       536         14          0          0          0       1836   spi.o
        64         26        304          0       1536        756   startup_stm32f10x_hd.o
      1102         26          0          0          0      10757   stm32f10x_adc.o
       284         10          0          0          0       2155   stm32f10x_exti.o
       856         40          0          0          0       5569   stm32f10x_gpio.o
       192        102          0          0          0       2526   stm32f10x_it.o
       932         44          0         20          0       8704   stm32f10x_rcc.o
       780         14          0          0          0       6450   stm32f10x_spi.o
      3610         88          0          0          0      22052   stm32f10x_tim.o
      1032         22          0          0          0       8292   stm32f10x_usart.o
       476         36          0         20          0       1623   system_stm32f10x.o
       508         28          0          0          0        838   tapdev.o
      2516        188          0         60        200      11801   tasks.o
       572        140          0          1        500      10590   tcp_client_demo.o
        88          8          0          0          0       1538   tcp_demo.o
       516        152          0          4       1000       2786   tcp_modbus.o
        64          0          0          0          0       1292   timer.o
       300         22          0          8          0       1444   timerx.o
         0          0          0          0        626        550   txbuf.o
      1272         74          0          3        410       2722   udp_scan.o
      6020        658          8         60       6472      16298   uip.o
      1036         60         10          8         96       3599   uip_arp.o
       256         14          0          8          0       2772   usart.o
       756        128          0        116       2428       4477   user_data.o
       560         18         24         28     218688       4376   vmalloc.o
       218          0          0          0          0       1577   whois.o
       506          0          0          0          0       1811   wp.o

    ----------------------------------------------------------------------
     83856       4626       8272       2480     248296    1011365   Object Totals
         0          0         32          0          0          0   (incl. Generated)
        20          0          5         15         10          0   (incl. Padding)

    ----------------------------------------------------------------------

      Code (inc. data)   RO Data    RW Data    ZI Data      Debug   Library Member Name

        60          8          0          0          0         84   __0sscanf.o
        24          4          0          0          0         84   __2printf.o
        56          6          0          0          0         88   __2snprintf.o
        44          6          0          0          0         84   __2sprintf.o
       100          0          0          0          0          0   __dclz77c.o
         8          0          0          0          0         68   __main.o
       352          0          0          0          0         88   __printf_ss_wp.o
        14          0          0          0          0         68   __printf_wp.o
        52          8          0          0          0          0   __scatter.o
        28          0          0          0          0          0   __scatter_zi.o
        28          0          0          0          0         68   _chval.o
         6          0          0          0          0          0   _printf_c.o
        44          0          0          0          0        108   _printf_char.o
        48          6          0          0          0         96   _printf_char_common.o
        36          4          0          0          0         80   _printf_char_file.o
         6          0          0          0          0          0   _printf_d.o
       120         18          0          0          0         92   _printf_dec.o
       184          0          0          0          0         88   _printf_intcommon.o
        82          0          0          0          0        108   _printf_pad.o
         0          0          0          0          0          0   _printf_percent.o
         4          0          0          0          0          0   _printf_percent_end.o
         6          0          0          0          0          0   _printf_s.o
        82          0          0          0          0         80   _printf_str.o
         6          0          0          0          0          0   _printf_u.o
        22          0          0          0          0        100   _rserrno.o
       880          4          0          0          0        100   _scanf.o
       336          0          0          0          0         96   _scanf_int.o
        64          0          0          0          0         84   _sgetc.o
        16          0          0          0          0         68   _snputc.o
        10          0          0          0          0         68   _sputc.o
       158          0          0          0          0         92   _strtoul.o
        16          0          0          0          0         68   aeabi_memset.o
       228          6        148          0          0         96   bigflt0.o
      1846        132          0          0          0        736   btod.o
        12          0          0          0          0         72   exit.o
         8          0          0          0          0         68   ferror.o
         6          0          0          0          0        152   heapauxi.o
        18          0          0          0          0         76   isspace.o
        44         10        272          0          0         76   lc_ctype_c.o
        44         10         28          0          0         76   lc_numeric_c.o
         2          0          0          0          0          0   libinit.o
        34          0          0          0          0          0   libinit2.o
         2          0          0          0          0          0   libshutdown.o
         2          0          0          0          0          0   libshutdown2.o
         8          4          0          0         96         68   libspace.o
        38          0          0          0          0         68   llshl.o
        88          0          0          0          0         76   memcmp.o
       112         18          0          0        228        160   rand.o
        16          4          0          0          0         76   rt_ctype_table.o
         8          4          0          0          0         68   rt_errno_addr_intlibspace.o
         8          4          0          0          0         68   rt_locale_intlibspace.o
        68          0          0          0          0         68   rt_memclr.o
        78          0          0          0          0         80   rt_memclr_w.o
       138          0          0          0          0         68   rt_memcpy_v6.o
       100          0          0          0          0         80   rt_memcpy_w.o
         0          0          0          0          0          0   rtentry.o
        12          0          0          0          0          0   rtentry2.o
         6          0          0          0          0          0   rtentry4.o
         2          0          0          0          0          0   rtexit.o
        10          0          0          0          0          0   rtexit2.o
        44          8          0          0          0         84   scanf_char.o
      1188         12          0          0          0        148   scanf_fp.o
       788         12          0          0          0        100   scanf_hexfp.o
       316         18          0          0          0        100   scanf_infnan.o
        20          0          0          0          0         68   strchr.o
       128          0          0          0          0         68   strcmpv7m.o
        72          0          0          0          0         80   strcpy.o
        62          0          0          0          0         76   strlen.o
       150          0          0          0          0         80   strncmp.o
        86          0          0          0          0         76   strncpy.o
        22          0          0          0          0         68   strrchr.o
        36          0          0          0          0         80   strstr.o
       160         12          0          0          0        120   strtod.o
       112          0          0          0          0         88   strtol.o
       114          0          0          0          0         92   strtoul.o
        74          0          0          0          0         80   sys_stackheap_outer.o
         2          0          0          0          0         68   use_no_semi.o
         2          0          0          0          0         68   use_no_semi_2.o
        98          4          0          0          0         92   d2f.o
        16          4          0          0          0         68   dcheck1.o
        24          0          0          0          0         68   dcmpi.o
       120          4          0          0          0         92   deqf.o
       120          4          0          0          0         92   dleqf.o
       156          4          0          0          0         92   dnaninf.o
       108          0          0          0          0         80   drleqf.o
        24          0          0          0          0         68   fcmpi.o
       388         76          0          0          0         96   fdiv.o
        54          4          0          0          0         84   ffix.o
        62          4          0          0          0         84   ffixu.o
        86          0          0          0          0        136   fflt_clz.o
       104          4          0          0          0         84   fleqf.o
       258          4          0          0          0         84   fmul.o
       140          4          0          0          0         84   fnaninf.o
         0          0          8          0          0          0   fpconst.o
        10          0          0          0          0         68   fretinf.o
        98          0          0          0          0         68   frleqf.o
       100          0          0          0          0         68   retnan.o
        92          0          0          0          0         68   scalbn.o
         4          0          0          0          0         68   scanf1.o
         8          0          0          0          0         84   scanf2.o
        48          0          0          0          0         68   trapv.o
         0          0          0          0          0          0   usenofp.o
        16          6          0          0          0         68   dunder.o
        88          8          0          0          0         76   frexp.o
       148          0          0          0          0        160   ldexp.o
       152          4          0          0          0        160   narrow.o
        28          0          0          0          0         80   strtod.o

    ----------------------------------------------------------------------
     11788        454        456          0        328       8076   Library Totals
        32          2          0          0          4          0   (incl. Padding)

    ----------------------------------------------------------------------

      Code (inc. data)   RO Data    RW Data    ZI Data      Debug   Library Name

      9206        318        448          0        324       5736   c_w.l
      2118        116          8          0          0       1796   fz_ws.l
       432         18          0          0          0        544   m_ws.l

    ----------------------------------------------------------------------
     11788        454        456          0        328       8076   Library Totals

    ----------------------------------------------------------------------

==============================================================================


      Code (inc. data)   RO Data    RW Data    ZI Data      Debug   

     95644       5080       8728       2480     248624    1005661   Grand Totals
     95644       5080       8728       1152     248624    1005661   ELF Image Totals (compressed)
     95644       5080       8728       1152          0          0   ROM Totals

==============================================================================

    Total RO  Size (Code + RO Data)               104372 ( 101.93kB)
    Total RW  Size (RW Data + ZI Data)            251104 ( 245.22kB)
    Total ROM Size (Code + RO Data + RW Data)     105524 ( 103.05kB)

==============================================================================

